******************************************************************************
                  TI ARM Linker PC v16.9.6                     
******************************************************************************
>> Linked Sun Oct 28 22:45:29 2018

OUTPUT FILE NAME:   <xwr14xx_gesture_swipe_mss.xer4f>
ENTRY POINT SYMBOL: "_c_int00"  address: 00013d30


MEMORY CONFIGURATION

         name            origin    length      used     unused   attr    fill
----------------------  --------  ---------  --------  --------  ----  --------
PAGE 0:
  VECTORS               00000000   00000100  0000003c  000000c4     X
  PROG_RAM              00000100   0001ff00  00019a03  000064fd  R  X
  DATA_RAM              08000000   00010000  0000c402  00003bfe  RW  
  L3_RAM                51020000   00040000  00000b70  0003f490  RW  
  HWA_RAM               52030000   00010000  00010000  00000000  RW  

PAGE 1:
  L3_RAM                51020000   00040000  00040000  00000000  RW  


SEGMENT ALLOCATION MAP

run origin  load origin   length   init length attrs members
----------  ----------- ---------- ----------- ----- -------
00000000    00000000    0000003c   0000003c    r--
  00000000    00000000    0000003c   0000003c    r-- .vecs
00000100    00000100    00018894   00018894    r-x
  00000100    00000100    00018894   00018894    r-x .text
000189a0    000189a0    00001170   00001170    r--
  000189a0    000189a0    00000dbf   00000dbf    r-- .const
  00019760    00019760    000003b0   000003b0    r-- .cinit
08000000    08000000    0000c408   00000000    rw-
  08000000    08000000    00008000   00000000    rw- systemHeap
  08008000    08008000    00001cbc   00000000    rw- .bss
  08009cc0    08009cc0    00001a96   00000000    rw- .data
  0800b758    0800b758    00000800   00000000    rw- .myFiqStack
  0800bf58    0800bf58    000004b0   00000000    rw- .stack
51020000    51020000    00000b70   00000b70    r-x
  51020000    51020000    00000b70   00000b70    r-x .overlay
52030000    52030000    00010000   00000000    rw-
  52030000    52030000    00010000   00000000    rw- .hwaBufs
51020000    51020000    00040000   00000000    rw-
  51020000    51020000    00040000   00000000    rw- .l3ram


SECTION ALLOCATION MAP

 output                                  attributes/
section   page    origin      length       input sections
--------  ----  ----------  ----------   ----------------
.vecs      0    00000000    0000003c     
                  00000000    0000003c     mmw_per4f.oer4f (.vecs)

.text      0    00000100    00018894     
                  00000100    0000107a     rtsv7R4_T_le_v3D16_eabi.lib : _printfi.obj (.text)
                  0000117a    00000002     libadcbuf_xwr14xx.aer4f : adcbuf_mmwave.oer4f (.text:ADCBUF_MMWave_init)
                  0000117c    000007b4     HandCraftedclassifier.oer4f (.text:Handmadeclassifier_prediction)
                  00001930    000005fc     rtsv7R4_T_le_v3D16_eabi.lib : k_rem_pio2.obj (.text)
                  00001f2c    0000058e     libhwa_xwr14xx.aer4f : hwa.oer4f (.text:HWA_configParamSet)
                  000024ba    00000006     libedma_xwr14xx.aer4f : edma_low_level.oer4f (.text:EDMA3ClrCCErr)
                  000024c0    00000564     sysbios.aer4f : BIOS.obj (.text:ti_sysbios_knl_Event_pend__E)
                  00002a24    00000540     ti.targets.arm.rtsarm.aer4f : System.oer4f (.text:xdc_runtime_System_doPrint__I)
                  00002f64    000004ec     main_swipe.oer4f (.text:MmwDemo_dataPathTask)
                  00003450    000004b0     sysbios.aer4f : BIOS.obj (.text:ti_sysbios_knl_Semaphore_pend__E)
                  00003900    000004a5     config_hwa_util.oer4f (.text:HWAutil_configDopplerFFT)
                  00003da5    00000001     --HOLE-- [fill = 0]
                  00003da6    00000002     libhwa_xwr14xx.aer4f : hwa.oer4f (.text:HWA_init)
                  00003da8    00000448     data_path.oer4f (.text:MmwDemo_config2D_EDMA)
                  000041f0    00000430     sysbios.aer4f : BIOS.obj (.text:ti_sysbios_knl_Task_Instance_finalize__E)
                  00004620    0000042c     libadcbuf_xwr14xx.aer4f : adcbuf_mmwave.oer4f (.text:ADCBUF_MMWave_control)
                  00004a4c    00000414     main_swipe.oer4f (.text:MmwDemo_parseProfileAndChirpConfig)
                  00004e60    000003f4     rtsv7R4_T_le_v3D16_eabi.lib : s_cos.obj (.text)
                  00005254    0000000c     libedma_xwr14xx.aer4f : edma_low_level.oer4f (.text:EDMA3ChannelToParamMap)
                  00005260    00000374     sysbios.aer4f : BIOS.obj (.text:ti_sysbios_timers_rti_Timer_Module_startup__E)
                  000055d4    0000000c     libedma_xwr14xx.aer4f : edma_low_level.oer4f (.text:EDMAsetRegion)
                  000055e0    00000370     sysbios.aer4f : BIOS.obj (.text:ti_sysbios_heaps_HeapMem_freeUnprotected__E)
                  00005950    00000304                   : BIOS.obj (.text:ti_sysbios_heaps_HeapMem_allocUnprotected__E)
                  00005c54    0000000c     libmmwave_xwr14xx.aer4f : mmwave_osal.oer4f (.text:MMWave_osalMutexUnlock)
                  00005c60    000002fc     sysbios.aer4f : BIOS.obj (.text:ti_sysbios_family_arm_exc_Exception_excDumpContext__I)
                  00005f5c    00000004     libedma_xwr14xx.aer4f : edma.oer4f (.text:EDMA_getNumInstances)
                  00005f60    000002fc     sysbios.aer4f : BIOS.obj (.text:ti_sysbios_knl_Task_Instance_init__E)
                  0000625c    000002e8     rx_ch_bias_measure.oer4f (.text:MmwDemo_rangeBiasRxChPhaseMeasure)
                  00006544    000002c4     mmw_cli.oer4f (.text:MmwDemo_CLIInit)
                  00006808    000002b8     rtsv7R4_T_le_v3D16_eabi.lib : ull_div32.obj (.text)
                  00006ac0    000002a8     sysbios.aer4f : BIOS.obj (.text:ti_sysbios_knl_Task_schedule__I)
                  00006d68    000002a4     rtsv7R4_T_le_v3D16_eabi.lib : e_asin.obj (.text)
                  0000700c    00000290     sensor_mgmt.oer4f (.text:MmwDemo_sensorMgmtTask)
                  0000729c    00000004     libosal_xwr14xx.aer4f : HwiP_tirtos.oer4f (.text:HwiP_disableInterrupt)
                  000072a0    00000290     sysbios.aer4f : BIOS.obj (.text:ti_sysbios_family_arm_v7r_vim_Hwi_dispatchIRQC__I)
                  00007530    0000028c     gesture_swipe.oer4f (.text:Gesture_findNumDetections)
                  000077bc    00000004     libosal_xwr14xx.aer4f : HwiP_tirtos.oer4f (.text:HwiP_enableInterrupt)
                  000077c0    00000280     sysbios.aer4f : BIOS.obj (.text:ti_sysbios_family_arm_exc_Exception_excHandler__I)
                  00007a40    00000258     data_path.oer4f (.text:MmwDemo_dataPathConfigCommon)
                  00007c98    00000240     libcli_xwr14xx.aer4f : cli_mmwave.oer4f (.text:CLI_MMWaveProfileCfg)
                  00007ed8    00000234     data_path.oer4f (.text:MmwDemo_dcRangeSignatureCompensation)
                  0000810c    0000021c     libsoc_xwr14xx.aer4f : soc_xwr14xx.oer4f (.text:SOC_deviceInit)
                  00008328    00000215     config_hwa_util.oer4f (.text:HWAutil_configAngleEstAzimuthElevation)
                  0000853d    00000001     --HOLE-- [fill = 0]
                  0000853e    00000002     libmmwave_xwr14xx.aer4f : mmwave_xwr14xx.oer4f (.text:MMWave_deviceEventFxn)
                  00008540    00000214     sysbios.aer4f : BIOS.obj (.text:ti_sysbios_knl_Event_post__E)
                  00008754    00000205     config_hwa_util.oer4f (.text:HWAutil_configRangeFFT)
                  00008959    00000001     --HOLE-- [fill = 0]
                  0000895a    00000002     libmmwave_xwr14xx.aer4f : mmwave_link.oer4f (.text:MMWave_maskHostIRQ)
                  0000895c    00000200     rtsv7R4_T_le_v3D16_eabi.lib : e_log10.obj (.text)
                  00008b5c    00000004     libmmwave_xwr14xx.aer4f : mmwave_xwr14xx.oer4f (.text:MMWave_deviceCfgFxn)
                  00008b60    000001f8     sysbios.aer4f : BIOS.obj (.text:ti_sysbios_heaps_HeapMem_Instance_init__E)
                  00008d58    000001f2     libhwa_xwr14xx.aer4f : hwa.oer4f (.text:HWA_configCommon)
                  00008f4a    00000002     libuart_xwr14xx.aer4f : uartsci.oer4f (.text:UartSci_init)
                  00008f4c    000001e4     rtsv7R4_T_le_v3D16_eabi.lib : strtod.obj (.text)
                  00009130    000001e4     sysbios.aer4f : BIOS.obj (.text:ti_sysbios_family_arm_v7r_vim_Hwi_reconfig__E)
                  00009314    0000000c     libmmwave_xwr14xx.aer4f : mmwave_osal.oer4f (.text:MMWave_osalSemSignal)
                  00009320    000001e4     sysbios.aer4f : BIOS.obj (.text:ti_sysbios_knl_Semaphore_post__E)
                  00009504    000001c8     rtsv7R4_T_le_v3D16_eabi.lib : fopen.obj (.text)
                  000096cc    000001c4     libcli_xwr14xx.aer4f : cli_mmwave.oer4f (.text:CLI_MMWaveChirpCfg)
                  00009890    000001c4     sysbios.aer4f : BIOS.obj (.text:ti_sysbios_knl_Clock_workFunc__E)
                  00009a54    000001c4     ti.targets.arm.rtsarm.aer4f : Error.oer4f (.text:xdc_runtime_Error_policyDefault__E)
                  00009c18    000001a4     libcli_xwr14xx.aer4f : cli_mmwave.oer4f (.text:CLI_MMWaveSubFrameCfg)
                  00009dbc    000001a1                          : cli_mmwave.oer4f (.text:CLI_MMWaveVersion)
                  00009f5d    00000001     --HOLE-- [fill = 0]
                  00009f5e    00000002     rtsv7R4_T_le_v3D16_eabi.lib : i_div0.obj (.text)
                  00009f60    000001a0     sysbios.aer4f : BIOS.obj (.text:ti_sysbios_family_arm_v7r_vim_Hwi_initIntController__I)
                  0000a100    00000198     libmmwavelink_xwr14xx.aer4f : rl_driver.oer4f (.text:rlDriverCmdInvoke)
                  0000a298    00000008     libosal_xwr14xx.aer4f : HwiP_tirtos.oer4f (.text:HwiP_disable)
                  0000a2a0    00000194     sysbios.aer4f : BIOS.obj (.text:ti_sysbios_knl_Task_postInit__I)
                  0000a434    0000000c     rtsv7R4_T_le_v3D16_eabi.lib : copy_zero_init.obj (.text:decompress:ZI)
                  0000a440    0000018c     sysbios.aer4f : BIOS.obj (.text:ti_sysbios_family_arm_v7r_vim_Hwi_Instance_init__E)
                  0000a5cc    00000004     libmmwave_xwr14xx.aer4f : mmwave_xwr14xx.oer4f (.text:MMWave_deviceExecuteFxn)
                  0000a5d0    0000018c     sysbios.aer4f : BIOS.obj (.text:ti_sysbios_knl_Task_startCore__E)
                  0000a75c    00000188     libhwa_xwr14xx.aer4f : hwa.oer4f (.text:HWA_open)
                  0000a8e4    00000188     mmw_per4f.oer4f (.text:xdc_runtime_System_printfExtend__I)
                  0000aa6c    00000184     libmmwavelink_xwr14xx.aer4f : rl_driver.oer4f (.text:rlDriverRxHdrRead)
                  0000abf0    0000017c     ti.targets.arm.rtsarm.aer4f : Core-mem.oer4f (.text:xdc_runtime_Core_createObject__I)
                  0000ad6c    00000004     libmmwave_xwr14xx.aer4f : mmwave_xwr14xx.oer4f (.text:MMWave_deviceInitFxn)
                  0000ad70    00000174     sysbios.aer4f : BIOS.obj (.text:ti_sysbios_heaps_HeapBuf_Module_startup__E)
                  0000aee4    0000000c     libmmwavelink_xwr14xx.aer4f : rl_driver.oer4f (.text:rlDriverGetPlatformId)
                  0000aef0    00000174     sysbios.aer4f : BIOS.obj (.text:ti_sysbios_knl_Task_exit__E)
                  0000b064    00000170     libedma_xwr14xx.aer4f : edma.oer4f (.text:EDMA_open)
                  0000b1d4    00000170     libgpio_xwr14xx.aer4f : gpio.oer4f (.text:GPIO_setConfig)
                  0000b344    0000000c     sysbios.aer4f : BIOS.obj (.text:ti_sysbios_family_arm_v7a_Pmu_configureCounterI__I)
                  0000b350    00000170                   : BIOS.obj (.text:ti_sysbios_family_arm_v7r_vim_Hwi_Module_startup__E)
                  0000b4c0    00000170                   : BIOS.obj (.text:ti_sysbios_utils_Load_updateLoads__E)
                  0000b630    0000016c     main_swipe.oer4f (.text:MmwDemo_eventCallbackFxn)
                  0000b79c    00000160     libmailbox_xwr14xx.aer4f : mailbox.oer4f (.text:Mailbox_open)
                  0000b8fc    00000158     ti.targets.arm.rtsarm.aer4f : Startup.oer4f (.text:xdc_runtime_Startup_startMods__I)
                  0000ba54    00000154     libedma_xwr14xx.aer4f : edma.oer4f (.text:EDMA_error_isr)
                  0000bba8    00000154     data_path.oer4f (.text:MmwDemo_config1D_EDMA)
                  0000bcfc    00000004     libmmwave_xwr14xx.aer4f : mmwave_xwr14xx.oer4f (.text:MMWave_deviceOpenFxn)
                  0000bd00    00000154     sysbios.aer4f : BIOS.obj (.text:ti_sysbios_utils_Load_updateThreadContexts__E)
                  0000be54    00000150     libmmwave_xwr14xx.aer4f : mmwave_link.oer4f (.text:MMWave_initMMWaveLink)
                  0000bfa4    0000014c     libcli_xwr14xx.aer4f : cli_mmwave.oer4f (.text:CLI_MMWaveFrameCfg)
                  0000c0f0    0000014c                          : cli.oer4f (.text:CLI_task)
                  0000c23c    0000014c     mmw_cli.oer4f (.text:MmwDemo_CLICalibDcRangeSig)
                  0000c388    00000144     ti.targets.arm.rtsarm.aer4f : Core-smem.oer4f (.text:xdc_runtime_Core_constructObject__I)
                  0000c4cc    00000004     libmmwave_xwr14xx.aer4f : mmwave_xwr14xx.oer4f (.text:MMWave_deviceStartFxn)
                  0000c4d0    00000140     sysbios.aer4f : BIOS.obj (.text:ti_sysbios_knl_Task_unblockI__E)
                  0000c610    0000013e     libuart_xwr14xx.aer4f : uartsci.oer4f (.text:UartSci_ISR)
                  0000c74e    00000002     --HOLE-- [fill = 0]
                  0000c750    0000013c     libedma_xwr14xx.aer4f : edma.oer4f (.text:EDMA_configChannel)
                  0000c88c    00000138     main_swipe.oer4f (.text:MmwDemo_ADCBufConfig)
                  0000c9c4    0000000c     sysbios.aer4f : BIOS.obj (.text:ti_sysbios_family_arm_v7a_Pmu_getCountI__E)
                  0000c9d0    00000138                   : BIOS.obj (.text:ti_sysbios_family_arm_v7a_Pmu_configureCounter__E)
                  0000cb08    00000008     libmmwave_xwr14xx.aer4f : mmwave_xwr14xx.oer4f (.text:MMWave_deviceGetDeviceInfo)
                  0000cb10    00000130     sysbios.aer4f : BIOS.obj (.text:ti_sysbios_timers_rti_Timer_getFreq__E)
                  0000cc40    00000128     libcli_xwr14xx.aer4f : cli_mmwave.oer4f (.text:CLI_MMWaveContModeCfg)
                  0000cd68    00000128     libmmwavelink_xwr14xx.aer4f : rl_driver.oer4f (.text:rlDriverMsgRead)
                  0000ce90    00000124     libcli_xwr14xx.aer4f : cli_mmwave.oer4f (.text:CLI_MMWaveAdvFrameCfg)
                  0000cfb4    00000124     libedma_xwr14xx.aer4f : edma.oer4f (.text:EDMA_init)
                  0000d0d8    00000008     libmmwave_xwr14xx.aer4f : mmwave_link.oer4f (.text:MMWave_mboxCallbackFxn)
                  0000d0e0    00000124     sysbios.aer4f : BIOS.obj (.text:ti_sysbios_gates_GateMutex_enter__E)
                  0000d204    0000000c                   : tms570_Core_asm.obj (.text:ti_sysbios_family_arm_v7r_tms570_Core_getId__E)
                  0000d210    00000124                   : BIOS.obj (.text:ti_sysbios_utils_Load_taskCreateHook__E)
                  0000d334    0000000c     ti.targets.arm.rtsarm.aer4f : SysStd.oer4f (.text:xdc_runtime_SysStd_exit__E)
                  0000d340    0000011c     sysbios.aer4f : BIOS.obj (.text:ti_sysbios_timers_rti_Timer_startup__E)
                  0000d45c    0000011a     config_edma_util.oer4f (.text:EDMAutil_configHwaTranspose)
                  0000d576    0000000a     libadcbuf_xwr14xx.aer4f : ADCBuf.oer4f (.text:ADCBuf_control)
                  0000d580    00000118     sysbios.aer4f : BIOS.obj (.text:ti_sysbios_utils_Load_logLoads__I)
                  0000d698    00000114     mmw_cli.oer4f (.text:MmwDemo_CLICompRangeBiasAndRxChanPhaseCfg)
                  0000d7ac    00000114     libmmwavelink_xwr14xx.aer4f : rl_driver.oer4f (.text:rlDriverCmdSendRetry)
                  0000d8c0    00000114     sysbios.aer4f : BIOS.obj (.text:ti_sysbios_utils_Load_idleFxn__E)
                  0000d9d4    00000110     libedma_xwr14xx.aer4f : edma.oer4f (.text:EDMA_transferComplete_isr)
                  0000dae4    00000110     data_path.oer4f (.text:MmwDemo_configAngleEstimation_HWA)
                  0000dbf4    0000010c     data_path.oer4f (.text:MmwDemo_configCFAR_EDMA)
                  0000dd00    00000108     libmailbox_xwr14xx.aer4f : mailbox.oer4f (.text:Mailbox_write)
                  0000de08    00000008     data_path.oer4f (.text:MmwDemo_dataPathHwaDoneIsrCallback)
                  0000de10    00000108     sysbios.aer4f : BIOS.obj (.text:ti_sysbios_knl_Semaphore_Instance_init__E)
                  0000df18    00000102     config_edma_util.oer4f (.text:EDMAutil_configHwaContiguous)
                  0000e01a    00000002     --HOLE-- [fill = 0]
                  0000e01c    00000100     libcli_xwr14xx.aer4f : cli_mmwave.oer4f (.text:CLI_MMWaveBPMCfgAdvanced)
                  0000e11c    00000100     libmmwave_xwr14xx.aer4f : mmwave_link.oer4f (.text:MMWave_openLink)
                  0000e21c    00000100                             : mmwave_link.oer4f (.text:MMWave_startLink)
                  0000e31c    00000100     libmmwavelink_xwr14xx.aer4f : rl_driver.oer4f (.text:rlDriverInit)
                  0000e41c    000000fc     libcrc_xwr14xx.aer4f : crc.oer4f (.text:CRC_computeSignature)
                  0000e518    000000fc     data_path.oer4f (.text:MmwDemo_config1D_HWA)
                  0000e614    000000fc     data_path.oer4f (.text:MmwDemo_config2D_HWA)
                  0000e710    000000fc     main_swipe.oer4f (.text:main)
                  0000e80c    00000004     libmmwave_xwr14xx.aer4f : mmwave_xwr14xx.oer4f (.text:MMWave_deviceStopFxn)
                  0000e810    000000fc     sysbios.aer4f : BIOS.obj (.text:ti_sysbios_knl_Task_blockI__E)
                  0000e90c    000000f8     libmmwavelink_xwr14xx.aer4f : rl_driver.oer4f (.text:rlDriverRdVerifyMsg)
                  0000ea04    000000f2     ti.targets.arm.rtsarm.aer4f : Text.oer4f (.text:xdc_runtime_Text_putSite__E)
                  0000eaf6    00000002     --HOLE-- [fill = 0]
                  0000eaf8    000000ec     auto_init.aer4f : auto_init.oer4f (.text)
                  0000ebe4    000000ec     rtsv7R4_T_le_v3D16_eabi.lib : s_scalbn.obj (.text)
                  0000ecd0    000000ea     config_hwa_util.oer4f (.text:HWAutil_configAngleEstAzimuth)
                  0000edba    00000002     --HOLE-- [fill = 0]
                  0000edbc    000000e4     libmmwave_xwr14xx.aer4f : mmwave_link.oer4f (.text:MMWave_asyncEventHandler)
                  0000eea0    000000e4     sysbios.aer4f : BIOS.obj (.text:ti_sysbios_knl_Task_Module_startup__E)
                  0000ef84    000000e4     ti.targets.arm.rtsarm.aer4f : Text.oer4f (.text:xdc_runtime_Text_putMod__E)
                  0000f068    000000e2     libedma_xwr14xx.aer4f : edma.oer4f (.text:EDMA_paramConfig_assist)
                  0000f14a    00000002     --HOLE-- [fill = 0]
                  0000f14c    000000e0     libcli_xwr14xx.aer4f : cli.oer4f (.text:CLI_open)
                  0000f22c    000000e0     rtsv7R4_T_le_v3D16_eabi.lib : s_floor.obj (.text)
                  0000f30c    00000004     libmmwave_xwr14xx.aer4f : mmwave_xwr14xx.oer4f (.text:MMWave_deviceSyncFxn)
                  0000f310    000000e0     sysbios.aer4f : BIOS.obj (.text:ti_sysbios_family_arm_v7a_Pmu_getCount__E)
                  0000f3f0    000000e0                   : BIOS.obj (.text:ti_sysbios_family_arm_v7a_Pmu_startCounter__E)
                  0000f4d0    000000dc     libmailbox_xwr14xx.aer4f : mailbox.oer4f (.text:Mailbox_read)
                  0000f5ac    000000dc     rtsv7R4_T_le_v3D16_eabi.lib : s_ceil.obj (.text)
                  0000f688    000000dc                                 : setvbuf.obj (.text)
                  0000f764    000000da     config_edma_util.oer4f (.text:EDMAutil_configHwaOneHotSignature)
                  0000f83e    00000002     --HOLE-- [fill = 0]
                  0000f840    000000d8     libadcbuf_xwr14xx.aer4f : adcbuf_mmwave.oer4f (.text:ADCBUF_MMWave_open)
                  0000f918    000000d8     libedma_xwr14xx.aer4f : edma.oer4f (.text:EDMA_configErrorMonitoring)
                  0000f9f0    000000d4     libmmwavelink_xwr14xx.aer4f : rl_sensor.oer4f (.text:rlSetMultiBpmChirpConfig)
                  0000fac4    000000d3     data_path.oer4f (.text:MmwDemo_dataPathCfgBuffers)
                  0000fb97    00000001     --HOLE-- [fill = 0]
                  0000fb98    000000d0     sysbios.aer4f : exc_Exception_asm.obj (.text:ti_sysbios_family_arm_exc_Exception_excHandlerAsm__I)
                  0000fc68    000000cc     libedma_xwr14xx.aer4f : edma.oer4f (.text:EDMA_transferController_error_isr)
                  0000fd34    000000cc     mmw_cli.oer4f (.text:MmwDemo_CLIPeakGroupingCfg)
                  0000fe00    000000cc     libmmwavelink_xwr14xx.aer4f : rl_sensor.oer4f (.text:rlSetChirpConfig)
                  0000fecc    000000cc     rtsv7R4_T_le_v3D16_eabi.lib : fflush.obj (.text)
                  0000ff98    00000008     libosal_xwr14xx.aer4f : SemaphoreP_tirtos.oer4f (.text:SemaphoreP_Params_init)
                  0000ffa0    000000cc     sysbios.aer4f : BIOS.obj (.text:ti_sysbios_timers_rti_Timer_initDevice__I)
                  0001006c    000000c8     libmmwave_xwr14xx.aer4f : mmwave_fullcfg.oer4f (.text:MMWave_addChirp)
                  00010134    000000c8                             : mmwave_link.oer4f (.text:MMWave_configBPM)
                  000101fc    000000c8                             : mmwave_fullcfg.oer4f (.text:MMWave_flushCfg)
                  000102c4    000000c8                             : mmwave_fullcfg.oer4f (.text:MMWave_getChirpHandle)
                  0001038c    00000004                             : mmwave_link.oer4f (.text:MMWave_disableDevice)
                  00010390    000000c8     sysbios.aer4f : BIOS.obj (.text:ti_sysbios_utils_Load_startup__E)
                  00010458    000000c6     rx_ch_bias_measure.oer4f (.text:MmwDemo_quadFit)
                  0001051e    00000002     --HOLE-- [fill = 0]
                  00010520    000000c4     main_swipe.oer4f (.text:MmwDemo_measurementResultOutput)
                  000105e4    0000000c     mmw_per4f.oer4f (.text:xdc_runtime_Text_visitRope__I)
                  000105f0    000000c4     sysbios.aer4f : BIOS.obj (.text:ti_sysbios_family_arm_v7r_vim_Hwi_Instance_finalize__E)
                  000106b4    000000c0     sensor_mgmt.oer4f (.text:MmwDemo_sensorMgmtInit)
                  00010774    000000c0     libmmwavelink_xwr14xx.aer4f : rl_sensor.oer4f (.text:rlSetFrameConfig)
                  00010834    000000be     libhwa_xwr14xx.aer4f : hwa.oer4f (.text:HWA_enableParamSetInterrupt)
                  000108f2    00000002     --HOLE-- [fill = 0]
                  000108f4    000000bc     libcli_xwr14xx.aer4f : cli.oer4f (.text:CLI_help)
                  000109b0    000000bc     libgpio_xwr14xx.aer4f : gpio.oer4f (.text:GPIO_write)
                  00010a6c    000000bc     libmmwave_xwr14xx.aer4f : mmwave_link.oer4f (.text:MMWave_computeCRC)
                  00010b28    000000bc     rtsv7R4_T_le_v3D16_eabi.lib : open.obj (.text)
                  00010be4    0000000a     libosal_xwr14xx.aer4f : MemoryP_tirtos.oer4f (.text:MemoryP_ctrlFree)
                  00010bee    00000002     --HOLE-- [fill = 0]
                  00010bf0    000000bc     sysbios.aer4f : BIOS.obj (.text:ti_sysbios_utils_Load_taskDeleteHook__E)
                  00010cac    000000b8     libmmwavelink_xwr14xx.aer4f : rl_driver.oer4f (.text:rlDriverMsgWrite)
                  00010d64    000000b8     rtsv7R4_T_le_v3D16_eabi.lib : k_cos.obj (.text)
                  00010e1c    000000b6     libsoc_xwr14xx.aer4f : soc_mpu.o (.text)
                  00010ed2    00000002     --HOLE-- [fill = 0]
                  00010ed4    000000b4     libedma_xwr14xx.aer4f : edma.oer4f (.text:EDMA_startTransfer)
                  00010f88    000000b4     ti.targets.arm.rtsarm.aer4f : Memory.oer4f (.text:xdc_runtime_Memory_alloc__E)
                  0001103c    000000b0     libmmwave_xwr14xx.aer4f : mmwave_fullcfg.oer4f (.text:MMWave_addProfile)
                  000110ec    000000b0     mmw_cli.oer4f (.text:MmwDemo_CLIChirpQualityRxSatMonCfg)
                  0001119c    000000b0     libmmwavelink_xwr14xx.aer4f : rl_sensor.oer4f (.text:rlSetProfileConfig)
                  0001124c    000000ae     rtsv7R4_T_le_v3D16_eabi.lib : _io_perm.obj (.text)
                  000112fa    00000002     --HOLE-- [fill = 0]
                  000112fc    000000ac     libesm_xwr14xx.aer4f : esm.oer4f (.text:ESM_processInterrupt)
                  000113a8    000000aa     config_edma_util.oer4f (.text:EDMA_setup_shadow_link)
                  00011452    00000002     --HOLE-- [fill = 0]
                  00011454    000000a8     libcli_xwr14xx.aer4f : cli_mmwave.oer4f (.text:CLI_MMWaveExtensionHelp)
                  000114fc    000000a8     libedma_xwr14xx.aer4f : edma_low_level.oer4f (.text:EDMA3Init)
                  000115a4    000000a8     libmmwave_xwr14xx.aer4f : mmwave_link.oer4f (.text:MMWave_configureProfileChirp)
                  0001164c    000000a8                             : mmwave_fullcfg.oer4f (.text:MMWave_getBpmChirpHandle)
                  000116f4    000000a8     libpinmux_xwr14xx.aer4f : pinmux.oer4f (.text:Pinmux_Set_OverrideCtrl)
                  0001179c    000000a8     libmmwavelink_xwr14xx.aer4f : rl_sensor.oer4f (.text:rlSetAdvFrameConfig)
                  00011844    000000a5     ti.targets.arm.rtsarm.aer4f : System.oer4f (.text:xdc_runtime_System_formatNum__I)
                  000118e9    00000003     --HOLE-- [fill = 0]
                  000118ec    000000a4     libesm_xwr14xx.aer4f : esm.oer4f (.text:ESM_init)
                  00011990    000000a4     libmmwave_xwr14xx.aer4f : mmwave_fullcfg.oer4f (.text:MMWave_addBpmChirp)
                  00011a34    000000a4                             : mmwave.oer4f (.text:MMWave_start)
                  00011ad8    000000a4     main_swipe.oer4f (.text:MmwDemo_dataPathConfig)
                  00011b7c    000000a4     rtsv7R4_T_le_v3D16_eabi.lib : k_sin.obj (.text)
                  00011c20    000000a4     ti.targets.arm.rtsarm.aer4f : Error.oer4f (.text:xdc_runtime_Error_print__E)
                  00011cc4    000000a0     libadcbuf_xwr14xx.aer4f : adcbuf_mmwave.oer4f (.text:ADCBUF_MMWave_getChanBufAddr)
                  00011d64    000000a0     mmw_cli.oer4f (.text:MmwDemo_CLICfarCfg)
                  00011e04    000000a0     libsoc_xwr14xx.aer4f : soc.oer4f (.text:SOC_registerSysIntListener)
                  00011ea4    000000a0     libmmwavelink_xwr14xx.aer4f : rl_driver.oer4f (.text:rlDriverWaitForResponse)
                  00011f44    0000009f     ti.targets.arm.rtsarm.aer4f : Text.oer4f (.text:xdc_runtime_Text_putLab__E)
                  00011fe3    00000001     --HOLE-- [fill = 0]
                  00011fe4    0000009e     libuart_xwr14xx.aer4f : uartsci.oer4f (.text:UartSci_readChar)
                  00012082    00000002     --HOLE-- [fill = 0]
                  00012084    0000009c     libmmwave_xwr14xx.aer4f : mmwave_link.oer4f (.text:MMWave_configLink)
                  00012120    0000009c                             : mmwave_fullcfg.oer4f (.text:MMWave_getProfileHandle)
                  000121bc    0000009c     mmw_cli.oer4f (.text:MmwDemo_CLIGuiMonSel)
                  00012258    0000009c     libuart_xwr14xx.aer4f : uartsci.oer4f (.text:UartSci_write)
                  000122f4    0000009c     rtsv7R4_T_le_v3D16_eabi.lib : memcpy_t2.obj (.text)
                  00012390    0000009c     sysbios.aer4f : BIOS.obj (.text:ti_sysbios_knl_Clock_logTick__E)
                  0001242c    00000098     libmmwave_xwr14xx.aer4f : mmwave_fullcfg.oer4f (.text:MMWave_getChirpCfg)
                  000124c4    00000098     rtsv7R4_T_le_v3D16_eabi.lib : fclose.obj (.text)
                  0001255c    00000098                                 : fputc.obj (.text)
                  000125f4    00000098     sysbios.aer4f : vim_Hwi_asm_switch.obj (.text)
                  0001268c    00000098     ti.targets.arm.rtsarm.aer4f : Core-mem.oer4f (.text:xdc_runtime_Core_deleteObject__I)
                  00012724    00000096     libhwa_xwr14xx.aer4f : hwa.oer4f (.text:HWA_configRam)
                  000127ba    00000002     --HOLE-- [fill = 0]
                  000127bc    00000094     libmmwavelink_xwr14xx.aer4f : rl_driver.oer4f (.text:rlDriverDeInit)
                  00012850    00000094                                 : rl_driver.oer4f (.text:rlDriverMsgReadCmdCtx)
                  000128e4    00000094     sysbios.aer4f : vim_Hwi_asm.obj (.text:ti_sysbios_family_arm_v7r_vim_Hwi_dispatchIRQ__I)
                  00012978    00000008     libmmwavelink_xwr14xx.aer4f : rl_driver.oer4f (.text:rlDriverGetHandle)
                  00012980    00000094     sysbios.aer4f : BIOS.obj (.text:ti_sysbios_utils_Load_updateCurrentThreadTime__E)
                  00012a14    00000090     libmailbox_xwr14xx.aer4f : mailbox.oer4f (.text:Mailbox_close)
                  00012aa4    00000090     mmw_cli.oer4f (.text:MmwDemo_CLIChirpQualitySigImgMonCfg)
                  00012b34    00000090     main_swipe.oer4f (.text:MmwDemo_dataPathStart)
                  00012bc4    00000090     libuart_xwr14xx.aer4f : uartsci.oer4f (.text:UartSci_read)
                  00012c54    0000000a     libosal_xwr14xx.aer4f : SemaphoreP_tirtos.oer4f (.text:SemaphoreP_post)
                  00012c5e    00000002     --HOLE-- [fill = 0]
                  00012c60    00000090     sysbios.aer4f : BIOS.obj (.text:ti_sysbios_heaps_HeapMem_alloc__E)
                  00012cf0    0000008c     libcli_xwr14xx.aer4f : cli_mmwave.oer4f (.text:CLI_MMWaveDataOutputMode)
                  00012d7c    0000008c     libgpio_xwr14xx.aer4f : gpio.oer4f (.text:GPIO_init)
                  00012e08    0000008c     mmw_cli.oer4f (.text:MmwDemo_CLIMeasureRangeBiasAndRxChanPhaseCfg)
                  00012e94    0000008c     data_path.oer4f (.text:MmwDemo_edmaOpen)
                  00012f20    0000008c     libmmwavelink_xwr14xx.aer4f : rl_driver.oer4f (.text:rlDriverMsgCmdReply)
                  00012fac    0000008c     ti.targets.arm.rtsarm.aer4f : Startup.oer4f (.text:xdc_runtime_Startup_exec__E)
                  00013038    00000088     gesture_swipe.oer4f (.text:Gesture_angleEst)
                  000130c0    00000088     libmmwave_xwr14xx.aer4f : mmwave_fullcfg.oer4f (.text:MMWave_getProfileCfg)
                  00013148    00000088     libsoc_xwr14xx.aer4f : soc_xwr14xx.oer4f (.text:SOC_translateAddress)
                  000131d0    00000088     rtsv7R4_T_le_v3D16_eabi.lib : vsnprintf.obj (.text)
                  00013258    00000088     mmw_per4f.oer4f (.text:ti_sysbios_family_arm_v7r_vim_Hwi_create)
                  000132e0    00000084     libmmwave_xwr14xx.aer4f : mmwave_fullcfg.oer4f (.text:MMWave_getNumBpmChirp)
                  00013364    00000084     mmw_cli.oer4f (.text:MmwDemo_CLIADCBufCfg)
                  000133e8    00000008     mmw_per4f.oer4f (.text:ti_sysbios_family_arm_TaskSupport_Module__startupDone__S)
                  000133f0    00000084     sysbios.aer4f : BIOS.obj (.text:ti_sysbios_heaps_HeapMem_getStats__E)
                  00013474    00000082     libhwa_xwr14xx.aer4f : hwa.oer4f (.text:HWA_paramDoneISR)
                  000134f6    00000002     --HOLE-- [fill = 0]
                  000134f8    00000080     libcli_xwr14xx.aer4f : cli_mmwave.oer4f (.text:CLI_MMWaveChannelCfg)
                  00013578    00000080     libuart_xwr14xx.aer4f : uartsci.oer4f (.text:UartSci_writePolling)
                  000135f8    00000080     libmmwavelink_xwr14xx.aer4f : rl_driver.oer4f (.text:rlDriverExecuteGetApi)
                  00013678    00000080     mmw_per4f.oer4f (.text:ti_sysbios_knl_Task_create)
                  000136f8    00000008     sysbios.aer4f : a15_TimestampProvider_asm.obj (.text:ti_sysbios_family_arm_a15_TimestampProvider_get32__E)
                  00013700    00000080                   : BIOS.obj (.text:ti_sysbios_utils_Load_taskSwitchHook__E)
                  00013780    0000007e     libosal_xwr14xx.aer4f : HwiP_tirtos.oer4f (.text:HwiP_create)
                  000137fe    00000002     --HOLE-- [fill = 0]
                  00013800    0000007c     mmw_cli.oer4f (.text:MmwDemo_CLIMultiObjBeamForming)
                  0001387c    0000007c     libuart_xwr14xx.aer4f : uartsci.oer4f (.text:UartSci_readPolling)
                  000138f8    0000007c     sysbios.aer4f : arm_TaskSupport_asm.obj (.text:_ti_sysbios_family_arm_TaskSupport_buildTaskStack)
                  00013974    0000007c     ti.targets.arm.rtsarm.aer4f : Assert.oer4f (.text:xdc_runtime_Assert_raise__I)
                  000139f0    0000007a     rtsv7R4_T_le_v3D16_eabi.lib : memset_t2.obj (.text)
                  00013a6a    00000002     --HOLE-- [fill = 0]
                  00013a6c    00000078     libcli_xwr14xx.aer4f : cli_mmwave.oer4f (.text:CLI_MMWaveADCCfg)
                  00013ae4    00000078     libmmwave_xwr14xx.aer4f : mmwave_fullcfg.oer4f (.text:MMWave_getNumChirps)
                  00013b5c    00000078                             : mmwave.oer4f (.text:MMWave_open)
                  00013bd4    00000074     libedma_xwr14xx.aer4f : edma.oer4f (.text:EDMA_configParamSet)
                  00013c48    00000074     libmmwave_xwr14xx.aer4f : mmwave.oer4f (.text:MMWave_config)
                  00013cbc    00000074     libsoc_xwr14xx.aer4f : soc.oer4f (.text:SOC_init)
                  00013d30    00000074     boot.aer4f : boot.oer4f (.text)
                  00013da4    00000074     libmmwavelink_xwr14xx.aer4f : rl_driver.oer4f (.text:rlDriverAsyncEventHandler)
                  00013e18    00000074                                 : rl_driver.oer4f (.text:rlDriverProcRdMsg)
                  00013e8c    00000074     rtsv7R4_T_le_v3D16_eabi.lib : getdevice.obj (.text)
                  00013f00    00000074                                 : s_frexp.obj (.text)
                  00013f74    00000073     data_path.oer4f (.text:MmwDemo_dataPathTrigger1D)
                  00013fe7    00000001     --HOLE-- [fill = 0]
                  00013fe8    00000072     libmmwavelink_xwr14xx.aer4f : rl_driver.oer4f (.text:rlDriverClientCbCheck)
                  0001405a    00000002     --HOLE-- [fill = 0]
                  0001405c    00000070     libhwa_xwr14xx.aer4f : hwa.oer4f (.text:HWA_getDriverAccess)
                  000140cc    00000070     main_swipe.oer4f (.text:MmwDemo_frameStartIntHandler)
                  0001413c    00000004     libmmwave_xwr14xx.aer4f : mmwave_link.oer4f (.text:MMWave_enableDevice)
                  00014140    00000070     sysbios.aer4f : BIOS.obj (.text:ti_sysbios_family_arm_v7r_vim_Hwi_getStackInfo__E)
                  000141b0    00000070                   : BIOS.obj (.text:ti_sysbios_family_arm_v7r_vim_Hwi_phantomIntHandler__I)
                  00014220    0000006c     libgpio_xwr14xx.aer4f : gpio.oer4f (.text:GPIO_enableInt)
                  0001428c    0000006c     libmmwave_xwr14xx.aer4f : mmwave_link.oer4f (.text:MMWave_spawn)
                  000142f8    0000006c                             : mmwave_link.oer4f (.text:MMWave_stopLink)
                  00014364    0000006c     main_swipe.oer4f (.text:MmwDemo_ADCBufOpen)
                  000143d0    0000006c     libpinmux_xwr14xx.aer4f : pinmux.oer4f (.text:Pinmux_Set_FuncSel)
                  0001443c    0000006c     rtsv7R4_T_le_v3D16_eabi.lib : copy_decompress_lzss.obj (.text:decompress:lzss)
                  000144a8    0000006c                                 : trgmsg.obj (.text)
                  00014514    0000000a     libuart_xwr14xx.aer4f : UART.oer4f (.text:UART_read)
                  0001451e    00000002     --HOLE-- [fill = 0]
                  00014520    0000006c     sysbios.aer4f : BIOS.obj (.text:ti_sysbios_heaps_HeapMem_init__I)
                  0001458c    00000004     libmmwave_xwr14xx.aer4f : mmwave_listlib.oer4f (.text:MMWave_listGetHead)
                  00014590    0000006c     sysbios.aer4f : BIOS.obj (.text:ti_sysbios_knl_Task_allBlockedFunction__I)
                  000145fc    0000006a     libuart_xwr14xx.aer4f : uartsci.oer4f (.text:UartSci_control)
                  00014666    00000002     --HOLE-- [fill = 0]
                  00014668    00000068     mmw_cli.oer4f (.text:MmwDemo_CLIClutterRemoval)
                  000146d0    00000068     libmmwavelink_xwr14xx.aer4f : rl_driver.oer4f (.text:rlDriverExecuteSetApi)
                  00014738    00000068                                 : rl_driver.oer4f (.text:rlDriverHostIrqHandler)
                  000147a0    00000068     rtsv7R4_T_le_v3D16_eabi.lib : hostlseek.obj (.text)
                  00014808    00000068                                 : hostrename.obj (.text)
                  00014870    00000068     ti.targets.arm.rtsarm.aer4f : Error.oer4f (.text:xdc_runtime_Error_setX__E)
                  000148d8    00000067     data_path.oer4f (.text:MmwDemo_dataPathWait1D)
                  0001493f    00000001     --HOLE-- [fill = 0]
                  00014940    00000066     libmmwavelink_xwr14xx.aer4f : rl_device.oer4f (.text:rlDevicePowerOff)
                  000149a6    00000002     --HOLE-- [fill = 0]
                  000149a8    00000064     libcli_xwr14xx.aer4f : cli_mmwave.oer4f (.text:CLI_MMWaveLowPowerCfg)
                  00014a0c    00000064     libmailbox_xwr14xx.aer4f : mailbox.oer4f (.text:Mailbox_boxEmptyISRBss)
                  00014a70    00000064                              : mailbox.oer4f (.text:Mailbox_readFlush)
                  00014ad4    00000064     libosal_xwr14xx.aer4f : SemaphoreP_tirtos.oer4f (.text:SemaphoreP_create)
                  00014b38    00000064     rtsv7R4_T_le_v3D16_eabi.lib : fseek.obj (.text)
                  00014b9c    00000064                                 : sprintf.obj (.text)
                  00014c00    00000064     sysbios.aer4f : exc_Exception_asm.obj (.text:ti_sysbios_family_arm_exc_Exception_initCore0__I)
                  00014c64    00000064     ti.targets.arm.rtsarm.aer4f : Core-params.oer4f (.text:xdc_runtime_Core_assignParams__I)
                  00014cc8    00000060     libcli_xwr14xx.aer4f : cli_mmwave.oer4f (.text:CLI_MMWaveExtensionHandler)
                  00014d28    00000060     libgpio_xwr14xx.aer4f : gpio.oer4f (.text:GPIO_setCallback)
                  00014d88    00000060     libmmwave_xwr14xx.aer4f : mmwave_xwr14xx.oer4f (.text:MMWave_deviceCfgAsyncEvent)
                  00014de8    00000060                             : mmwave_link.oer4f (.text:MMWave_mboxOpen)
                  00014e48    00000060     mmw_cli.oer4f (.text:MmwDemo_CLIAnalogMonitorCfg)
                  00014ea8    00000060     libuart_xwr14xx.aer4f : uartsci.oer4f (.text:UartSci_writeChar)
                  00014f08    00000060     ti.targets.arm.rtsarm.aer4f : Text.oer4f (.text:xdc_runtime_Text_xprintf__I)
                  00014f68    0000005f     data_path.oer4f (.text:MmwDemo_dataPathWait2D)
                  00014fc7    00000001     --HOLE-- [fill = 0]
                  00014fc8    0000005c     libmmwave_xwr14xx.aer4f : mmwave.oer4f (.text:MMWave_stop)
                  00015024    0000005c     main_swipe.oer4f (.text:MmwDemo_mmWaveCtrlTask)
                  00015080    0000005c     rtsv7R4_T_le_v3D16_eabi.lib : hostopen.obj (.text)
                  000150dc    0000005c                                 : hostread.obj (.text)
                  00015138    00000008     sysbios.aer4f : BIOS.obj (.text:ti_sysbios_family_arm_v7a_Pmu_getEnabled__E)
                  00015140    0000005c                   : BIOS.obj (.text:ti_sysbios_family_arm_v7r_tms570_Core_Module_startup__E)
                  0001519c    0000005c     ti.targets.arm.rtsarm.aer4f : Core-label.oer4f (.text:xdc_runtime_Core_assignLabel__I)
                  000151f8    0000005a     libuart_xwr14xx.aer4f : uartsci.oer4f (.text:UartSci_readCancel)
                  00015252    0000005a     libmmwavelink_xwr14xx.aer4f : rl_driver.oer4f (.text:rlDriverCalChkSum)
                  000152ac    00000058     libedma_xwr14xx.aer4f : edma_low_level.oer4f (.text:EDMA3EnableChInShadowReg)
                  00015304    00000058     libesm_xwr14xx.aer4f : esm.oer4f (.text:ESM_highpriority_FIQ)
                  0001535c    00000058     libmmwave_xwr14xx.aer4f : mmwave.oer4f (.text:MMWave_execute)
                  000153b4    00000058     libmailbox_xwr14xx.aer4f : mailbox.oer4f (.text:Mailbox_boxFullISRBss)
                  0001540c    00000058     sensor_mgmt.oer4f (.text:MmwDemo_waitSensorStartComplete)
                  00015464    00000058     libmmwavelink_xwr14xx.aer4f : rl_driver.oer4f (.text:rlDriverMsgReadSpawnCtx)
                  000154bc    00000058     rtsv7R4_T_le_v3D16_eabi.lib : close.obj (.text)
                  00015514    00000058                                 : hostwrite.obj (.text)
                  0001556c    00000004     libmmwave_xwr14xx.aer4f : mmwave_listlib.oer4f (.text:MMWave_listGetNext)
                  00015570    00000058     sysbios.aer4f : BIOS.obj (.text:ti_sysbios_family_arm_TaskSupport_start__E)
                  000155c8    00000008     ti.targets.arm.rtsarm.aer4f : Error.oer4f (.text:xdc_runtime_Error_getSite__E)
                  000155d0    00000058     sysbios.aer4f : BIOS.obj (.text:ti_sysbios_hal_Hwi_checkStack)
                  00015628    00000058     mmw_per4f.oer4f (.text:ti_sysbios_rts_gnu_MemAlloc_alloc)
                  00015680    00000056     libmmwavelink_xwr14xx.aer4f : rl_driver.oer4f (.text:rlDriverOsiCbCheck)
                  000156d6    00000002     --HOLE-- [fill = 0]
                  000156d8    00000054     libcrc_xwr14xx.aer4f : crc.oer4f (.text:CRC_getTransactionId)
                  0001572c    00000054     rtsv7R4_T_le_v3D16_eabi.lib : ltoa.obj (.text)
                  00015780    00000054     sysbios.aer4f : BIOS.obj (.text:ti_sysbios_hal_Hwi_initStack)
                  000157d4    00000054     mmw_per4f.oer4f (.text:ti_sysbios_knl_Semaphore_create)
                  00015828    00000054     ti.targets.arm.rtsarm.aer4f : System.oer4f (.text:xdc_runtime_System_atexit__E)
                  0001587c    00000054                                 : System.oer4f (.text:xdc_runtime_System_putchar__I)
                  000158d0    00000053                                 : Text.oer4f (.text:xdc_runtime_Text_printVisFxn__I)
                  00015923    00000001     --HOLE-- [fill = 0]
                  00015924    00000052     libhwa_xwr14xx.aer4f : hwa.oer4f (.text:HWA_getDMAconfig)
                  00015976    00000002     --HOLE-- [fill = 0]
                  00015978    00000050     libcrc_xwr14xx.aer4f : crc.oer4f (.text:CRC_getSignature)
                  000159c8    00000050     libedma_xwr14xx.aer4f : edma_low_level.oer4f (.text:EDMA3MapChToEvtQ)
                  00015a18    00000050     libmmwave_xwr14xx.aer4f : mmwave.oer4f (.text:MMWave_sync)
                  00015a68    00000050     libmmwavelink_xwr14xx.aer4f : rl_driver.oer4f (.text:rlDeviceIdentifyCmdDir)
                  00015ab8    00000050                                 : rl_driver.oer4f (.text:rlDriverVerifyCRC)
                  00015b08    00000050     rtsv7R4_T_le_v3D16_eabi.lib : atoi.obj (.text)
                  00015b58    00000050                                 : exit.obj (.text)
                  00015ba8    00000050                                 : u_div32.obj (.text)
                  00015bf8    00000008     ti.targets.arm.rtsarm.aer4f : SysStd.oer4f (.text:xdc_runtime_SysStd_ready__E)
                  00015c00    00000050     sysbios.aer4f : BIOS.obj (.text:ti_sysbios_knl_Event_pendTimeout__I)
                  00015c50    00000050                   : BIOS.obj (.text:ti_sysbios_knl_Semaphore_pendTimeout__I)
                  00015ca0    0000004f     data_path.oer4f (.text:MmwDemo_dataPathTrigger2D)
                  00015cef    00000001     --HOLE-- [fill = 0]
                  00015cf0    0000004c     libedma_xwr14xx.aer4f : edma.oer4f (.text:EDMA_disableChannel)
                  00015d3c    0000004c                           : edma.oer4f (.text:EDMA_enableChannel)
                  00015d88    0000004c     sensor_mgmt.oer4f (.text:MmwDemo_waitSensorStopComplete)
                  00015dd4    0000004c     libuart_xwr14xx.aer4f : uartsci.oer4f (.text:UartSci_writeCancel)
                  00015e20    0000004c     rtsv7R4_T_le_v3D16_eabi.lib : cpy_tbl.obj (.text)
                  00015e6c    0000004c     mmw_per4f.oer4f (.text:ti_sysbios_gates_GateHwi_Object__create__S)
                  00015eb8    0000004c     mmw_per4f.oer4f (.text:ti_sysbios_gates_GateMutex_Object__create__S)
                  00015f04    0000004c     mmw_per4f.oer4f (.text:ti_sysbios_heaps_HeapMem_Object__create__S)
                  00015f50    0000004c     mmw_per4f.oer4f (.text:ti_sysbios_knl_Event_create)
                  00015f9c    0000004c     mmw_per4f.oer4f (.text:ti_sysbios_knl_Semaphore_construct)
                  00015fe8    0000004b     data_path.oer4f (.text:MmwDemo_EDMA_transferCompletionCallbackFxn)
                  00016033    00000001     --HOLE-- [fill = 0]
                  00016034    00000048     libcli_xwr14xx.aer4f : cli.oer4f (.text:CLI_write)
                  0001607c    00000048     libhwa_xwr14xx.aer4f : hwa.oer4f (.text:HWA_deleteInstance)
                  000160c4    00000048                          : hwa.oer4f (.text:HWA_enableDoneInterrupt)
                  0001610c    00000048     libmmwavelink_xwr14xx.aer4f : rl_device.oer4f (.text:rlDeviceGetVersion)
                  00016154    00000048                                 : rl_driver.oer4f (.text:rlDriverOsiInit)
                  0001619c    00000048     mmw_per4f.oer4f (.text:ti_sysbios_knl_Clock_doTick__I)
                  000161e4    00000048     ti.targets.arm.rtsarm.aer4f : System.oer4f (.text:xdc_runtime_System_processAtExit__E)
                  0001622c    00000046     libmailbox_xwr14xx.aer4f : mailbox.oer4f (.text:CSL_FINSR)
                  00016272    00000044     libcrc_xwr14xx.aer4f : crc.oer4f (.text:CRC_resetSignature)
                  000162b6    00000002     --HOLE-- [fill = 0]
                  000162b8    00000044     rtsv7R4_T_le_v3D16_eabi.lib : hostclose.obj (.text)
                  000162fc    00000044                                 : hostunlink.obj (.text)
                  00016340    00000044     sysbios.aer4f : BIOS.obj (.text:ti_sysbios_heaps_HeapMem_free__E)
                  00016384    00000044     mmw_per4f.oer4f (.text:ti_sysbios_knl_Queue_construct)
                  000163c8    00000008     ti.targets.arm.rtsarm.aer4f : System.oer4f (.text:xdc_runtime_System_Module_startup__E)
                  000163d0    00000044     sysbios.aer4f : BIOS.obj (.text:ti_sysbios_timers_rti_Timer_periodicStub__E)
                  00016414    00000044     ti.targets.arm.rtsarm.aer4f : Text.oer4f (.text:xdc_runtime_Text_cordText__E)
                  00016458    00000042     libhwa_xwr14xx.aer4f : hwa.oer4f (.text:HWA_reset)
                  0001649a    00000042     libmmwave_xwr14xx.aer4f : mmwave_link.oer4f (.text:MMWave_executeLink)
                  000164dc    00000040     libedma_xwr14xx.aer4f : edma.oer4f (.text:EDMA_linkParamSets)
                  0001651c    00000040     libmmwave_xwr14xx.aer4f : mmwave.oer4f (.text:MMWave_decodeError)
                  0001655c    00000040     libmmwavelink_xwr14xx.aer4f : rl_driver.oer4f (.text:rlDriverValidateHdr)
                  0001659c    00000040     rtsv7R4_T_le_v3D16_eabi.lib : strtok.obj (.text)
                  000165dc    00000040     mmw_per4f.oer4f (.text:ti_sysbios_BIOS_atExitFunc__I)
                  0001661c    00000040     ti.targets.arm.rtsarm.aer4f : System.oer4f (.text:xdc_runtime_System_avprintf__E)
                  0001665c    0000003f     data_path.oer4f (.text:MmwDemo_dataPathWaitAngleEstimation)
                  0001669b    00000001     --HOLE-- [fill = 0]
                  0001669c    0000003f     data_path.oer4f (.text:MmwDemo_hwaOpen)
                  000166db    00000001     --HOLE-- [fill = 0]
                  000166dc    0000003e     libadcbuf_xwr14xx.aer4f : adcbuf_mmwave.oer4f (.text:CSL_FINSR)
                  0001671a    0000003e     libcrc_xwr14xx.aer4f : crc.oer4f (.text:CSL_FINSR)
                  00016758    0000003e     libgpio_xwr14xx.aer4f : gpio.oer4f (.text:CSL_FINSR)
                  00016796    0000003e     libhwa_xwr14xx.aer4f : hwa.oer4f (.text:CSL_FINSR)
                  000167d4    0000003e     libpinmux_xwr14xx.aer4f : pinmux.oer4f (.text:CSL_FINSR)
                  00016812    0000003e     libsoc_xwr14xx.aer4f : soc.oer4f (.text:CSL_FINSR)
                  00016850    0000003e                          : soc_xwr14xx.oer4f (.text:CSL_FINSR)
                  0001688e    0000003e     libuart_xwr14xx.aer4f : uartsci.oer4f (.text:CSL_FINSR)
                  000168cc    0000003e     libhwa_xwr14xx.aer4f : hwa.oer4f (.text:HWA_enable)
                  0001690a    0000003e     libuart_xwr14xx.aer4f : uartsci.oer4f (.text:UartSci_close)
                  00016948    0000003c     libcli_xwr14xx.aer4f : cli_mmwave.oer4f (.text:CLI_MMWaveFlushCfg)
                  00016984    0000003c     libmailbox_xwr14xx.aer4f : mailbox.oer4f (.text:Mailbox_writeReset)
                  000169c0    0000003c     libsoc_xwr14xx.aer4f : soc.oer4f (.text:SOC_unhaltBSS)
                  000169fc    0000003c     libmmwavelink_xwr14xx.aer4f : rl_controller.oer4f (.text:rlGetSubBlock)
                  00016a38    0000003c     sysbios.aer4f : vim_Hwi_asm.obj (.text:ti_sysbios_family_arm_v7r_vim_Hwi_init__I)
                  00016a74    0000003c     ti.targets.arm.rtsarm.aer4f : System.oer4f (.text:xdc_runtime_System_vprintf__E)
                  00016ab0    0000003a     libhwa_xwr14xx.aer4f : hwa.oer4f (.text:HWA_setDMA2ACCManualTrig)
                  00016aea    00000002     --HOLE-- [fill = 0]
                  00016aec    0000003a     libosal_xwr14xx.aer4f : HwiP_tirtos.oer4f (.text:HwiP_delete)
                  00016b26    0000003a     HandCraftedclassifier.oer4f (.text:getmaxidx_inarray)
                  00016b60    0000003a     HandCraftedclassifier.oer4f (.text:getminidx_inarray)
                  00016b9a    00000002     --HOLE-- [fill = 0]
                  00016b9c    00000038     libadcbuf_xwr14xx.aer4f : adcbuf_mmwave.oer4f (.text:ADCBUF_MMWave_close)
                  00016bd4    00000038     libedma_xwr14xx.aer4f : edma_low_level.oer4f (.text:EDMA3ClrMissEvt)
                  00016c0c    00000038     libuart_xwr14xx.aer4f : UART.oer4f (.text:UART_init)
                  00016c44    00000038     mmw_per4f.oer4f (.text:ti_sysbios_BIOS_startFunc__I)
                  00016c7c    00000004     libmmwave_xwr14xx.aer4f : mmwave_link.oer4f (.text:MMWave_mboxClose)
                  00016c80    00000038     sysbios.aer4f : BIOS.obj (.text:ti_sysbios_knl_Task_restore__E)
                  00016cb8    00000037     data_path.oer4f (.text:MmwDemo_dataPathTriggerAngleEstimation)
                  00016cef    00000001     --HOLE-- [fill = 0]
                  00016cf0    00000036     libmmwavelink_xwr14xx.aer4f : rl_controller.oer4f (.text:rlAppendSubBlock)
                  00016d26    00000036     rtsv7R4_T_le_v3D16_eabi.lib : strncpy.obj (.text)
                  00016d5c    00000034     libadcbuf_xwr14xx.aer4f : ADCBuf.oer4f (.text:ADCBuf_open)
                  00016d90    00000034     libedma_xwr14xx.aer4f : edma.oer4f (.text:EDMA_configTransferControllerError)
                  00016dc4    00000034     libmmwave_xwr14xx.aer4f : mmwave_link.oer4f (.text:MMWave_mboxWrite)
                  00016df8    00000034     libsoc_xwr14xx.aer4f : soc_xwr14xx.oer4f (.text:SOC_enableHWA)
                  00016e2c    00000034     libuart_xwr14xx.aer4f : UART.oer4f (.text:UART_open)
                  00016e60    00000034     mmw_per4f.oer4f (.text:ti_sysbios_BIOS_registerRTSLock__I)
                  00016e94    00000034     mmw_per4f.oer4f (.text:ti_sysbios_BIOS_removeRTSLock__I)
                  00016ec8    00000034     mmw_per4f.oer4f (.text:ti_sysbios_family_arm_v7r_vim_Hwi_Object__delete__S)
                  00016efc    00000034     mmw_per4f.oer4f (.text:ti_sysbios_gates_GateMutex_Object__delete__S)
                  00016f30    00000034     sysbios.aer4f : BIOS.obj (.text:ti_sysbios_knl_Clock_Module_startup__E)
                  00016f64    0000000a     libuart_xwr14xx.aer4f : UART.oer4f (.text:UART_write)
                  00016f6e    00000002     --HOLE-- [fill = 0]
                  00016f70    00000034     sysbios.aer4f : BIOS.obj (.text:ti_sysbios_knl_Idle_run__E)
                  00016fa4    00000034     mmw_per4f.oer4f (.text:ti_sysbios_knl_Semaphore_Object__delete__S)
                  00016fd8    00000034     ti.targets.arm.rtsarm.aer4f : Registry.oer4f (.text:xdc_runtime_Registry_findById__E)
                  0001700c    00000034                                 : SysStd.oer4f (.text:xdc_runtime_SysStd_abort__E)
                  00017040    00000032     libcrc_xwr14xx.aer4f : crc.oer4f (.text:CRC_getCRCDataSelectBitValue)
                  00017072    00000002     --HOLE-- [fill = 0]
                  00017074    00000032                          : crc.oer4f (.text:CRC_getCRCTypeBitValue)
                  000170a6    00000032     libedma_xwr14xx.aer4f : edma.oer4f (.text:EDMA_configQueueThreshold)
                  000170d8    00000032     libhwa_xwr14xx.aer4f : hwa.oer4f (.text:HWA_allParamDoneISR)
                  0001710a    00000002     --HOLE-- [fill = 0]
                  0001710c    00000030     libadcbuf_xwr14xx.aer4f : ADCBuf.oer4f (.text:ADCBuf_init)
                  0001713c    00000030     libmmwave_xwr14xx.aer4f : mmwave_listlib.oer4f (.text:MMWave_listRemoveNode)
                  0001716c    00000030     data_path.oer4f (.text:MmwDemo_EDMA_errorCallbackFxn)
                  0001719c    00000030     libmmwavelink_xwr14xx.aer4f : rl_sensor.oer4f (.text:rlSensorStart)
                  000171cc    00000030     mmw_per4f.oer4f (.text:ti_sysbios_BIOS_rtsLock__I)
                  000171fc    00000004     libmmwave_xwr14xx.aer4f : mmwave_link.oer4f (.text:MMWave_mboxRead)
                  00017200    00000030     sysbios.aer4f : BIOS.obj (.text:ti_sysbios_family_arm_a15_TimestampProvider_autoRefreshFxn__I)
                  00017230    00000030                   : BIOS.obj (.text:ti_sysbios_family_arm_v7r_vim_Hwi_disableInterrupt__E)
                  00017260    00000030                   : BIOS.obj (.text:ti_sysbios_family_arm_v7r_vim_Hwi_enableInterrupt__E)
                  00017290    00000030     mmw_per4f.oer4f (.text:ti_sysbios_gates_GateHwi_Object__delete__S)
                  000172c0    00000030     sysbios.aer4f : BIOS.obj (.text:ti_sysbios_gates_GateMutex_Instance_init__E)
                  000172f0    00000030     mmw_per4f.oer4f (.text:ti_sysbios_heaps_HeapMem_Object__delete__S)
                  00017320    00000030     sysbios.aer4f : BIOS.obj (.text:ti_sysbios_knl_Task_restoreHwi__E)
                  00017350    00000030     ti.targets.arm.rtsarm.aer4f : Error.oer4f (.text:xdc_runtime_Error_check__E)
                  00017380    00000030                                 : Error.oer4f (.text:xdc_runtime_Error_raiseX__E)
                  000173b0    00000030                                 : Memory.oer4f (.text:xdc_runtime_Memory_valloc__E)
                  000173e0    0000002f     data_path.oer4f (.text:MmwDemo_EDMA_transferControllerErrorCallbackFxn)
                  0001740f    00000001     --HOLE-- [fill = 0]
                  00017410    0000002e     libmmwave_xwr14xx.aer4f : mmwave_osal.oer4f (.text:MMWave_osalMutexCreate)
                  0001743e    0000002e                             : mmwave_osal.oer4f (.text:MMWave_osalSemCreate)
                  0001746c    0000002c     libedma_xwr14xx.aer4f : edma.oer4f (.text:EDMA_validate_channelIdchannelType)
                  00017498    0000002c     libgpio_xwr14xx.aer4f : gpio.oer4f (.text:GPIO_HighPriorityISR)
                  000174c4    0000002c                           : gpio.oer4f (.text:GPIO_LowPriorityISR)
                  000174f0    0000002c     libsoc_xwr14xx.aer4f : soc_xwr14xx.oer4f (.text:SOC_waitBSSPowerUp)
                  0001751c    0000002c     libmmwavelink_xwr14xx.aer4f : rl_device.oer4f (.text:rlDeviceGetMssVersion)
                  00017548    0000002c                                 : rl_sensor.oer4f (.text:rlSensorStop)
                  00017574    0000002c     rtsv7R4_T_le_v3D16_eabi.lib : e_sqrt.obj (.text)
                  000175a0    0000002c                                 : unlink.obj (.text)
                  000175cc    0000002c     mmw_per4f.oer4f (.text:ti_sysbios_BIOS_errorRaiseHook__I)
                  000175f8    0000002c     mmw_per4f.oer4f (.text:ti_sysbios_gates_GateHwi_Handle__label__S)
                  00017624    0000002c     mmw_per4f.oer4f (.text:ti_sysbios_gates_GateMutex_Handle__label__S)
                  00017650    0000002c     mmw_per4f.oer4f (.text:ti_sysbios_heaps_HeapMem_Handle__label__S)
                  0001767c    0000002c     mmw_per4f.oer4f (.text:ti_sysbios_knl_Semaphore_destruct)
                  000176a8    00000006     libedma_xwr14xx.aer4f : edma_low_level.oer4f (.text:EDMA3ErrIntrHighStatusGet)
                  000176ae    00000002     --HOLE-- [fill = 0]
                  000176b0    0000002c     sysbios.aer4f : BIOS.obj (.text:ti_sysbios_knl_Task_enter__I)
                  000176dc    0000002a     libsoc_xwr14xx.aer4f : soc.oer4f (.text:SOC_SystemISR)
                  00017706    0000002a     rtsv7R4_T_le_v3D16_eabi.lib : strspn.obj (.text)
                  00017730    00000028     main_swipe.oer4f (.text:MmwDemo_dataPathInit)
                  00017758    00000028     libuart_xwr14xx.aer4f : uartsci_nodma.oer4f (.text:UartSci_noDMAInitiateRxDMA)
                  00017780    00000028                           : uartsci_nodma.oer4f (.text:UartSci_noDMAInitiateTxDMA)
                  000177a8    00000028     mmw_per4f.oer4f (.text:free)
                  000177d0    00000028     config_hwa_util.oer4f (.text:log2Approx)
                  000177f8    00000028     libmmwavelink_xwr14xx.aer4f : rl_driver.oer4f (.text:rlDriverConstructInMsg)
                  00017820    00000028     rtsv7R4_T_le_v3D16_eabi.lib : lseek.obj (.text)
                  00017848    00000028                                 : write.obj (.text)
                  00017870    00000028     mmw_per4f.oer4f (.text:ti_sysbios_BIOS_rtsUnlock__I)
                  00017898    00000006     libedma_xwr14xx.aer4f : edma_low_level.oer4f (.text:EDMA3GetCCErrStatus)
                  0001789e    00000002     --HOLE-- [fill = 0]
                  000178a0    00000028     sysbios.aer4f : BIOS.obj (.text:ti_sysbios_family_arm_v7a_Pmu_Module_startup__E)
                  000178c8    00000028     mmw_per4f.oer4f (.text:ti_sysbios_family_arm_v7r_vim_Hwi_Module__startupDone__F)
                  000178f0    00000028     sysbios.aer4f : BIOS.obj (.text:ti_sysbios_gates_GateMutex_leave__E)
                  00017918    00000028     mmw_per4f.oer4f (.text:ti_sysbios_knl_Queue_destruct)
                  00017940    00000028     mmw_per4f.oer4f (.text:ti_sysbios_timers_rti_Timer_Module__startupDone__F)
                  00017968    00000028     ti.targets.arm.rtsarm.aer4f : Error.oer4f (.text:xdc_runtime_Error_init__E)
                  00017990    00000028                                 : System.oer4f (.text:xdc_runtime_System_abort__E)
                  000179b8    00000028     mmw_per4f.oer4f (.text:xdc_runtime_System_aprintf__E)
                  000179e0    00000028     mmw_per4f.oer4f (.text:xdc_runtime_System_printf__E)
                  00017a08    00000026     libmmwavelink_xwr14xx.aer4f : rl_device.oer4f (.text:rlDeviceGetMmWaveLinkVersion)
                  00017a2e    00000026                                 : rl_sensor.oer4f (.text:rlRfInitCalibConfig)
                  00017a54    00000026                                 : rl_sensor.oer4f (.text:rlRfRunTimeCalibConfig)
                  00017a7a    00000026                                 : rl_sensor.oer4f (.text:rlRfSetCalMonFreqLimitConfig)
                  00017aa0    00000026                                 : rl_sensor.oer4f (.text:rlRfSetDeviceCfg)
                  00017ac6    00000026                                 : rl_sensor.oer4f (.text:rlSetAdcOutConfig)
                  00017aec    00000026                                 : rl_sensor.oer4f (.text:rlSetBpmCommonConfig)
                  00017b12    00000026                                 : rl_sensor.oer4f (.text:rlSetChannelConfig)
                  00017b38    00000026                                 : rl_sensor.oer4f (.text:rlSetContModeConfig)
                  00017b5e    00000026     rtsv7R4_T_le_v3D16_eabi.lib : memcmp.obj (.text)
                  00017b84    00000025     main_swipe.oer4f (.text:_MmwDemo_debugAssert)
                  00017ba9    00000001     --HOLE-- [fill = 0]
                  00017baa    00000024     libcrc_xwr14xx.aer4f : crc.oer4f (.text:CRC_isTransactionIdValid)
                  00017bce    00000002     --HOLE-- [fill = 0]
                  00017bd0    00000024     libedma_xwr14xx.aer4f : edma_low_level.oer4f (.text:EDMA3ClrEvt)
                  00017bf4    00000024                           : edma_low_level.oer4f (.text:EDMA3ClrIntr)
                  00017c18    00000024                           : edma_low_level.oer4f (.text:EDMA3DisableEvtIntr)
                  00017c3c    00000024                           : edma_low_level.oer4f (.text:EDMA3EnableDmaEvt)
                  00017c60    00000024                           : edma_low_level.oer4f (.text:EDMA3EnableEvtIntr)
                  00017c84    00000024                           : edma_low_level.oer4f (.text:EDMA3SetEvt)
                  00017ca8    00000024     libgpio_xwr14xx.aer4f : gpio.oer4f (.text:GPIO_processInterrupt)
                  00017ccc    00000024     libmailbox_xwr14xx.aer4f : mailbox.oer4f (.text:Mailbox_Config_init)
                  00017cf0    00000024     libmmwavelink_xwr14xx.aer4f : rl_sensor.oer4f (.text:rlEnableContMode)
                  00017d14    00000024                                 : rl_sensor.oer4f (.text:rlRfSetCalMonTimeUnitConfig)
                  00017d38    00000024                                 : rl_sensor.oer4f (.text:rlSetLowPowerModeConfig)
                  00017d5c    00000024     ti.targets.arm.rtsarm.aer4f : System.oer4f (.text:xdc_runtime_System_exit__E)
                  00017d80    00000022     mmw_cli.oer4f (.text:MmwDemo_CLISensorStart)
                  00017da2    00000022     data_path.oer4f (.text:MmwDemo_memPoolAlloc)
                  00017dc4    00000022     rtsv7R4_T_le_v3D16_eabi.lib : strcspn.obj (.text)
                  00017de6    00000002     --HOLE-- [fill = 0]
                  00017de8    00000020     libcli_xwr14xx.aer4f : cli_mmwave.oer4f (.text:CLI_MMWaveExtensionInit)
                  00017e08    00000020     libedma_xwr14xx.aer4f : edma_low_level.oer4f (.text:EDMA3DisableDmaEvt)
                  00017e28    00000020                           : edma_low_level.oer4f (.text:EDMA3QdmaClrMissEvt)
                  00017e48    00000020     libesm_xwr14xx.aer4f : esm.oer4f (.text:ESM_lowpriority_IRQ)
                  00017e68    00000020     libmmwave_xwr14xx.aer4f : mmwave_listlib.oer4f (.text:MMWave_listCat)
                  00017e88    00000020     data_path.oer4f (.text:MmwDemo_dataPathObjInit)
                  00017ea8    00000020     main_swipe.oer4f (.text:MmwDemo_dataPathOpen)
                  00017ec8    00000020     libpinmux_xwr14xx.aer4f : pinmux.oer4f (.text:Pinmux_Unlock)
                  00017ee8    00000020     libmmwavelink_xwr14xx.aer4f : rl_sensor.oer4f (.text:rlRfInit)
                  00017f08    00000020     mmw_per4f.oer4f (.text:ti_sysbios_BIOS_exitFunc__I)
                  00017f28    00000006     libedma_xwr14xx.aer4f : edma_low_level.oer4f (.text:EDMA3GetErrIntrStatus)
                  00017f2e    00000002     --HOLE-- [fill = 0]
                  00017f30    00000020     sysbios.aer4f : BIOS.obj (.text:ti_sysbios_family_arm_v7r_vim_Hwi_clearInterrupt__E)
                  00017f50    0000001e     libmmwave_xwr14xx.aer4f : mmwave_fullcfg.oer4f (.text:MMWave_internalDelChirp)
                  00017f6e    0000001c     libcrc_xwr14xx.aer4f : crc.oer4f (.text:CRC_releaseTransactionId)
                  00017f8a    0000001c     libadcbuf_xwr14xx.aer4f : adcbuf_mmwave.oer4f (.text:CSL_FEXTR)
                  00017fa6    0000001c     libhwa_xwr14xx.aer4f : hwa.oer4f (.text:CSL_FEXTR)
                  00017fc2    0000001c     libmmwave_xwr14xx.aer4f : mmwave.oer4f (.text:CSL_FEXTR)
                  00017fde    0000001c     libsoc_xwr14xx.aer4f : soc_xwr14xx.oer4f (.text:CSL_FEXTR)
                  00017ffa    0000001c     libuart_xwr14xx.aer4f : uartsci.oer4f (.text:CSL_FEXTR)
                  00018016    0000001c     libmmwave_xwr14xx.aer4f : mmwave_listlib.oer4f (.text:MMWave_listRemove)
                  00018032    00000002     --HOLE-- [fill = 0]
                  00018034    0000001c     sensor_mgmt.oer4f (.text:MmwDemo_notifySensorStart)
                  00018050    0000001c     sysbios.aer4f : arm_TaskSupport_asm.obj (.text:_ti_sysbios_family_arm_TaskSupport_glue)
                  0001806c    0000001c     HandCraftedclassifier.oer4f (.text:findmax)
                  00018088    0000001c     HandCraftedclassifier.oer4f (.text:findmin)
                  000180a4    0000001c     rtsv7R4_T_le_v3D16_eabi.lib : memccpy.obj (.text)
                  000180c0    0000001c     sysbios.aer4f : a15_TimestampProvider_asm.obj (.text:ti_sysbios_family_arm_a15_TimestampProvider_initCCNT__I)
                  000180dc    0000001c     mmw_per4f.oer4f (.text:ti_sysbios_heaps_HeapMem_Object__get__S)
                  000180f8    00000006     libedma_xwr14xx.aer4f : edma_low_level.oer4f (.text:EDMA3QdmaGetErrIntrStatus)
                  000180fe    00000002     --HOLE-- [fill = 0]
                  00018100    0000001c     sysbios.aer4f : BIOS.obj (.text:ti_sysbios_knl_Event_Instance_init__E)
                  0001811c    0000001c     mmw_per4f.oer4f (.text:xdc_runtime_Startup_exec__I)
                  00018138    0000001c     ti.targets.arm.rtsarm.aer4f : System.oer4f (.text:xdc_runtime_System_vsnprintf__E)
                  00018154    0000001c                                 : Text.oer4f (.text:xdc_runtime_Text_ropeText__E)
                  00018170    0000001a     libsoc_xwr14xx.aer4f : soc.oer4f (.text:CSL_FEXTR)
                  0001818a    0000001a     libedma_xwr14xx.aer4f : edma_low_level.oer4f (.text:EDMA3SetPaRAM)
                  000181a4    0000001a     libmmwave_xwr14xx.aer4f : mmwave.oer4f (.text:MMWave_encodeError)
                  000181be    0000001a                             : mmwave_listlib.oer4f (.text:MMWave_listAdd)
                  000181d8    0000001a     rtsv7R4_T_le_v3D16_eabi.lib : s_copysign.obj (.text)
                  000181f2    00000002     --HOLE-- [fill = 0]
                  000181f4    00000018     libedma_xwr14xx.aer4f : edma_low_level.oer4f (.text:EDMA3DisableQdmaEvt)
                  0001820c    00000018                           : edma_low_level.oer4f (.text:EDMA3EnableQdmaEvt)
                  00018224    00000018     libmmwave_xwr14xx.aer4f : mmwave_osal.oer4f (.text:MMWave_osalMutexLock)
                  0001823c    00000018                             : mmwave_osal.oer4f (.text:MMWave_osalSemWait)
                  00018254    00000018     sensor_mgmt.oer4f (.text:MmwDemo_switchPressFxn)
                  0001826c    00000018     libuart_xwr14xx.aer4f : UART.oer4f (.text:UART_Params_init)
                  00018284    00000018     sysbios.aer4f : arm_TaskSupport_asm.obj (.text:_ti_sysbios_family_arm_TaskSupport_swap__E)
                  0001829c    00000018     libmmwavelink_xwr14xx.aer4f : rl_device.oer4f (.text:rlDeviceGetRfVersion)
                  000182b4    00000018                                 : rl_driver.oer4f (.text:rlDriverCalCRC)
                  000182cc    00000018                                 : rl_driver.oer4f (.text:rlDriverFillPayload)
                  000182e4    00000018                                 : rl_driver.oer4f (.text:rlDriverIsDeviceMapValid)
                  000182fc    00000018     rtsv7R4_T_le_v3D16_eabi.lib : args_main.obj (.text)
                  00018314    00000018                                 : strcmp.obj (.text)
                  0001832c    00000004     libmmwave_xwr14xx.aer4f : mmwave_link.oer4f (.text:MMWave_registerInterruptHandler)
                  00018330    00000018     sysbios.aer4f : BIOS.obj (.text:ti_sysbios_BIOS_setThreadType__E)
                  00018348    00000006     libosal_xwr14xx.aer4f : HwiP_tirtos.oer4f (.text:HwiP_restore)
                  0001834e    00000002     --HOLE-- [fill = 0]
                  00018350    00000018     sysbios.aer4f : BIOS.obj (.text:ti_sysbios_BIOS_start__E)
                  00018368    00000018                   : BIOS.obj (.text:ti_sysbios_family_arm_v7a_Pmu_initCounters__I)
                  00018380    00000018                   : BIOS.obj (.text:ti_sysbios_hal_Hwi_Module_startup__E)
                  00018398    00000018     mmw_per4f.oer4f (.text:ti_sysbios_heaps_HeapBuf_Object__get__S)
                  000183b0    00000018     sysbios.aer4f : BIOS.obj (.text:ti_sysbios_knl_Idle_loop__E)
                  000183c8    00000006     data_path.oer4f (.text:MmwDemo_memPoolReset)
                  000183ce    00000002     --HOLE-- [fill = 0]
                  000183d0    00000018     sysbios.aer4f : BIOS.obj (.text:ti_sysbios_knl_Queue_empty__E)
                  000183e8    00000018     mmw_per4f.oer4f (.text:ti_sysbios_knl_Task_Object__get__S)
                  00018400    00000018     sysbios.aer4f : BIOS.obj (.text:ti_sysbios_knl_Task_disable__E)
                  00018418    00000016     data_path.oer4f (.text:MmwDemo_process2D)
                  0001842e    00000016     rtsv7R4_T_le_v3D16_eabi.lib : strchr.obj (.text)
                  00018444    00000016                                 : strlen.obj (.text)
                  0001845a    00000002     --HOLE-- [fill = 0]
                  0001845c    00000014     libcli_xwr14xx.aer4f : cli_mmwave.oer4f (.text:CLI_getMMWaveExtensionOpenConfig)
                  00018470    00000014     libedma_xwr14xx.aer4f : edma_low_level.oer4f (.text:EDMA3GetIntrStatus)
                  00018484    00000014                           : edma_low_level.oer4f (.text:EDMA3IntrStatusHighGet)
                  00018498    00000014                           : edma_low_level.oer4f (.text:EDMA3MapQdmaChToPaRAM)
                  000184ac    00000014     libosal_xwr14xx.aer4f : HwiP_tirtos.oer4f (.text:HwiP_Params_init)
                  000184c0    00000014     libmmwave_xwr14xx.aer4f : mmwave_fullcfg.oer4f (.text:MMWave_internalDelBpmChirp)
                  000184d4    00000014                             : mmwave_fullcfg.oer4f (.text:MMWave_internalDelProfile)
                  000184e8    00000014                             : mmwave_osal.oer4f (.text:MMWave_osalMutexDelete)
                  000184fc    00000014                             : mmwave_osal.oer4f (.text:MMWave_osalSemDelete)
                  00018510    00000014     libpinmux_xwr14xx.aer4f : pinmux.oer4f (.text:Pinmux_Lock)
                  00018524    00000014     libosal_xwr14xx.aer4f : DebugP_tirtos.oer4f (.text:_DebugP_assert)
                  00018538    00000014     libmmwavelink_xwr14xx.aer4f : rl_controller.oer4f (.text:rlAppendDummy)
                  0001854c    00000014     rtsv7R4_T_le_v3D16_eabi.lib : _lock.obj (.text)
                  00018560    00000014                                 : strcpy.obj (.text)
                  00018574    0000000a     libuart_xwr14xx.aer4f : UART.oer4f (.text:UART_writePolling)
                  0001857e    00000002     --HOLE-- [fill = 0]
                  00018580    00000014     sysbios.aer4f : BIOS.obj (.text:ti_sysbios_family_arm_TaskSupport_checkStack__E)
                  00018594    00000006     libmmwavelink_xwr14xx.aer4f : rl_controller.oer4f (.text:rlGetSubBlockId)
                  0001859a    00000006                                 : rl_controller.oer4f (.text:rlGetSubBlockLen)
                  000185a0    00000014     sysbios.aer4f : BIOS.obj (.text:ti_sysbios_family_arm_a15_TimestampProvider_Module_startup__E)
                  000185b4    00000004     libmmwave_xwr14xx.aer4f : mmwave_link.oer4f (.text:MMWave_unmaskHostIRQ)
                  000185b8    00000004                             : mmwave_link.oer4f (.text:MMWave_waitIRQStatus)
                  000185bc    00000004     data_path.oer4f (.text:MmwDemo_hwaInit)
                  000185c0    00000014     sysbios.aer4f : BIOS.obj (.text:ti_sysbios_family_arm_v7r_vim_Hwi_switchFromBootStack__E)
                  000185d4    00000004     main_swipe.oer4f (.text:MmwDemo_sleep)
                  000185d8    00000004     libuart_xwr14xx.aer4f : uartsci_nodma.oer4f (.text:UartSci_noDMAClose)
                  000185dc    00000004                           : uartsci_nodma.oer4f (.text:UartSci_noDMAIsDMAEnabled)
                  000185e0    00000014     sysbios.aer4f : BIOS.obj (.text:ti_sysbios_gates_GateMutex_Instance_finalize__E)
                  000185f4    00000004     libuart_xwr14xx.aer4f : uartsci_nodma.oer4f (.text:UartSci_noDMAOpen)
                  000185f8    00000004     mmw_per4f.oer4f (.text:ti_sysbios_BIOS_RtsGateProxy_enter__E)
                  000185fc    00000004     mmw_per4f.oer4f (.text:ti_sysbios_BIOS_RtsGateProxy_leave__E)
                  00018600    00000014     sysbios.aer4f : BIOS.obj (.text:ti_sysbios_knl_Semaphore_Instance_finalize__E)
                  00018614    00000014     ti.targets.arm.rtsarm.aer4f : Gate.oer4f (.text:xdc_runtime_Gate_leaveSystem__E)
                  00018628    00000014     mmw_per4f.oer4f (.text:xdc_runtime_IHeap_alloc)
                  0001863c    00000014     mmw_per4f.oer4f (.text:xdc_runtime_IHeap_free)
                  00018650    00000014     ti.targets.arm.rtsarm.aer4f : Memory.oer4f (.text:xdc_runtime_Memory_calloc__E)
                  00018664    00000014                                 : Memory.oer4f (.text:xdc_runtime_Memory_free__E)
                  00018678    00000012     libedma_xwr14xx.aer4f : edma_low_level.oer4f (.text:EDMA3SetQdmaTrigWord)
                  0001868a    00000012     libosal_xwr14xx.aer4f : MemoryP_tirtos.oer4f (.text:MemoryP_ctrlAlloc)
                  0001869c    00000012     data_path.oer4f (.text:MmwDemo_pow2roundup)
                  000186ae    00000012     libosal_xwr14xx.aer4f : SemaphoreP_tirtos.oer4f (.text:SemaphoreP_pend)
                  000186c0    00000010     libcli_xwr14xx.aer4f : cli_mmwave.oer4f (.text:CLI_getMMWaveExtensionConfig)
                  000186d0    00000010     libcrc_xwr14xx.aer4f : crc.oer4f (.text:CRC_getSignatureRegister)
                  000186e0    00000010     sensor_mgmt.oer4f (.text:MmwDemo_notifySensorStop)
                  000186f0    00000010     libsoc_xwr14xx.aer4f : soc_xwr14xx.oer4f (.text:SOC_getInAddr_LUTType)
                  00018700    00000010                          : soc_xwr14xx.oer4f (.text:SOC_getOutAddr_LUTType)
                  00018710    00000010     gesture_swipe.oer4f (.text:dbgDummyFunc)
                  00018720    00000010     sysbios.aer4f : BIOS.obj (.text:ti_sysbios_BIOS_getCpuFreq__E)
                  00018730    00000010                   : BIOS.obj (.text:ti_sysbios_family_arm_TaskSupport_getStackAlignment__E)
                  00018740    00000010                   : a15_TimestampProvider_asm.obj (.text:ti_sysbios_family_arm_a15_TimestampProvider_getOverflowCCNT__I)
                  00018750    00000010                   : BIOS.obj (.text:ti_sysbios_family_arm_exc_Exception_Module_startup__E)
                  00018760    00000010                   : BIOS.obj (.text:ti_sysbios_family_arm_v7a_Pmu_disableInterruptI__E)
                  00018770    00000010                   : BIOS.obj (.text:ti_sysbios_family_arm_v7a_Pmu_enableInterruptI__E)
                  00018780    00000010                   : BIOS.obj (.text:ti_sysbios_family_arm_v7a_Pmu_getNumCounters__E)
                  00018790    00000010                   : BIOS.obj (.text:ti_sysbios_family_arm_v7a_Pmu_startCounterI__E)
                  000187a0    00000010                   : BIOS.obj (.text:ti_sysbios_family_arm_v7a_Pmu_stopCounterI__E)
                  000187b0    00000010     mmw_per4f.oer4f (.text:ti_sysbios_family_arm_v7r_vim_Hwi_Params__init__S)
                  000187c0    00000010     mmw_per4f.oer4f (.text:ti_sysbios_knl_Queue_Object__get__S)
                  000187d0    00000010     mmw_per4f.oer4f (.text:ti_sysbios_knl_Semaphore_Params__init__S)
                  000187e0    00000010     mmw_per4f.oer4f (.text:ti_sysbios_knl_Task_Params__init__S)
                  000187f0    00000010     sysbios.aer4f : BIOS.obj (.text:ti_sysbios_utils_Load_getCPULoad__E)
                  00018800    00000010                   : BIOS.obj (.text:ti_sysbios_utils_Load_taskRegHook__E)
                  00018810    00000010     ti.targets.arm.rtsarm.aer4f : Gate.oer4f (.text:xdc_runtime_Gate_enterSystem__E)
                  00018820    00000010                                 : Memory.oer4f (.text:xdc_runtime_Memory_getMaxDefaultTypeAlign__E)
                  00018830    00000010                                 : Startup.oer4f (.text:xdc_runtime_Startup_rtsDone__E)
                  00018840    0000000e     libadcbuf_xwr14xx.aer4f : ADCBuf.oer4f (.text:ADCBuf_Params_init)
                  0001884e    0000000e     libmmwave_xwr14xx.aer4f : mmwave.oer4f (.text:MMWave_decodeErrorLevel)
                  0001885c    0000000e     mmw_cli.oer4f (.text:MmwDemo_CLISensorStop)
                  0001886a    0000000e     libosal_xwr14xx.aer4f : SemaphoreP_tirtos.oer4f (.text:SemaphoreP_delete)
                  00018878    0000000e     rtsv7R4_T_le_v3D16_eabi.lib : copy_decompress_none.obj (.text:decompress:none)
                  00018886    00000002     --HOLE-- [fill = 0]
                  00018888    00000004     mmw_per4f.oer4f (.text:ti_sysbios_BIOS_nullFunc__I)
                  0001888c    00000004     mmw_per4f.oer4f (.text:ti_sysbios_family_arm_v7r_vim_Hwi_delete)
                  00018890    0000000c     sysbios.aer4f : BIOS.obj (.text:ti_sysbios_family_arm_v7r_vim_Hwi_startup__E)
                  0001889c    00000004     mmw_per4f.oer4f (.text:ti_sysbios_heaps_HeapMem_Module_GateProxy_enter__E)
                  000188a0    0000000c     sysbios.aer4f : BIOS.obj (.text:ti_sysbios_gates_GateHwi_enter__E)
                  000188ac    00000004     mmw_per4f.oer4f (.text:ti_sysbios_heaps_HeapMem_Module_GateProxy_leave__E)
                  000188b0    0000000c     sysbios.aer4f : BIOS.obj (.text:ti_sysbios_knl_Queue_Instance_init__E)
                  000188bc    00000004     mmw_per4f.oer4f (.text:ti_sysbios_knl_Clock_TimerProxy_getMaxTicks__E)
                  000188c0    00000008     sysbios.aer4f : BIOS.obj (.text:ti_sysbios_gates_GateHwi_leave__E)
                  000188c8    00000004     mmw_per4f.oer4f (.text:ti_sysbios_knl_Semaphore_delete)
                  000188cc    00000004     mmw_per4f.oer4f (.text:xdc_runtime_Startup_reset__I)
                  000188d0    00000008     sysbios.aer4f : BIOS.obj (.text:ti_sysbios_gates_GateHwi_query__E)
                  000188d8    00000004     ti.targets.arm.rtsarm.aer4f : SysStd.oer4f (.text:xdc_runtime_SysStd_putch__E)
                  000188dc    00000004     mmw_per4f.oer4f (.text:xdc_runtime_System_Module_GateProxy_enter__E)
                  000188e0    00000008     sysbios.aer4f : BIOS.obj (.text:ti_sysbios_gates_GateMutex_query__E)
                  000188e8    00000004     mmw_per4f.oer4f (.text:xdc_runtime_System_Module_GateProxy_leave__E)
                  000188ec    00000004     ti.targets.arm.rtsarm.aer4f : System.oer4f (.text:xdc_runtime_System_aprintf_va__F)
                  000188f0    00000008     sysbios.aer4f : BIOS.obj (.text:ti_sysbios_heaps_HeapMem_isBlocking__E)
                  000188f8    00000004     ti.targets.arm.rtsarm.aer4f : System.oer4f (.text:xdc_runtime_System_printf_va__F)
                  000188fc    00000004     --HOLE-- [fill = 0]
                  00018900    00000008     sysbios.aer4f : BIOS.obj (.text:ti_sysbios_timers_rti_Timer_getMaxTicks__E)
                  00018908    00000008                   : BIOS.obj (.tramp.ti_sysbios_family_arm_v7r_vim_Hwi_enableInterrupt__E.1)
                  00018910    00000004                   : BIOS.obj (.text:ti_sysbios_BIOS_linkedWithIncorrectBootLibrary__E)
                  00018914    0000000c     rtsv7R4_T_le_v3D16_eabi.lib : fputc.obj (.tramp.putchar.1)
                  00018920    00000004     sysbios.aer4f : BIOS.obj (.text:ti_sysbios_gates_GateHwi_Instance_init__E)
                  00018924    00000008                   : BIOS.obj (.tramp.ti_sysbios_family_arm_v7r_vim_Hwi_disableInterrupt__E.1)
                  0001892c    00000004     --HOLE-- [fill = 0]
                  00018930    00000004                   : BIOS.obj (.text:ti_sysbios_knl_Task_startup__E)
                  00018934    00000008                   : BIOS.obj (.tramp.ti_sysbios_knl_Semaphore_post__E.1)
                  0001893c    00000008     ti.targets.arm.rtsarm.aer4f : Memory.oer4f (.tramp.xdc_runtime_Memory_free__E.1)
                  00018944    0000000c     rtsv7R4_T_le_v3D16_eabi.lib : fflush.obj (.tramp.fflush.1)
                  00018950    0000000c                                 : memcpy_t2.obj (.tramp.memcpy.1)
                  0001895c    00000008     ti.targets.arm.rtsarm.aer4f : Assert.oer4f (.tramp.xdc_runtime_Assert_raise__I.1)
                  00018964    00000008     sysbios.aer4f : BIOS.obj (.tramp.ti_sysbios_knl_Event_post__E.1)
                  0001896c    0000000c     rtsv7R4_T_le_v3D16_eabi.lib : memset_t2.obj (.tramp.memset.1)
                  00018978    00000008     data_path.oer4f (.tramp.MmwDemo_edmaInit.1)
                  00018980    0000000c     rtsv7R4_T_le_v3D16_eabi.lib : cpy_tbl.obj (.tramp.copy_in.1)
                  0001898c    00000008     libmmwavelink_xwr14xx.aer4f : rl_device.oer4f (.tramp.rlDevicePowerOn.1)

.const     0    000189a0    00000dbf     
                  000189a0    00000254     libmmwavelink_xwr14xx.aer4f : rl_sensor.oer4f (.const:$O1$$)
                  00018bf4    00000004     libcli_xwr14xx.aer4f : cli.oer4f (.const:.string:$P$T0$1)
                  00018bf8    00000158     rtsv7R4_T_le_v3D16_eabi.lib : k_rem_pio2.obj (.const:$O1$$)
                  00018d50    00000101                                 : ctype.obj (.const:.string:_ctypes_)
                  00018e51    00000001     mmw_per4f.oer4f (.const:xdc_runtime_Error_policy__C)
                  00018e52    00000002     mmw_per4f.oer4f (.const:ti_sysbios_family_arm_exc_Exception_Module__id__C)
                  00018e54    000000a0     libcli_xwr14xx.aer4f : cli_mmwave.oer4f (.const:.string)
                  00018ef4    00000004     mmw_per4f.oer4f (.const:ti_sysbios_family_arm_TaskSupport_stackAlignment__C)
                  00018ef8    00000098     rtsv7R4_T_le_v3D16_eabi.lib : strtod.obj (.const:$O1$$)
                  00018f90    00000080     mmw_per4f.oer4f (.const:ti_sysbios_family_arm_v7r_vim_Hwi_channelMap__A)
                  00019010    00000078     libmmwavelink_xwr14xx.aer4f : rl_driver.oer4f (.const:$O2$$)
                  00019088    00000048     mmw_per4f.oer4f (.const:.string)
                  000190d0    0000003c     mmw_per4f.oer4f (.const:ti_sysbios_knl_Task_Object__PARAMS__C)
                  0001910c    00000030     mmw_per4f.oer4f (.const:ti_sysbios_family_arm_v7r_vim_Hwi_Object__PARAMS__C)
                  0001913c    0000002c     mmw_per4f.oer4f (.const:xdc_runtime_Startup_sfxnTab__A)
                  00019168    00000028     libuart_xwr14xx.aer4f : UART.oer4f (.const:UART_defaultParams)
                  00019190    00000028     mmw_per4f.oer4f (.const:ti_sysbios_heaps_HeapMem_Module__FXNS__C)
                  000191b8    00000024     mmw_per4f.oer4f (.const:ti_sysbios_gates_GateHwi_Module__FXNS__C)
                  000191dc    00000024     mmw_per4f.oer4f (.const:ti_sysbios_gates_GateMutex_Module__FXNS__C)
                  00019200    00000024     mmw_per4f.oer4f (.const:ti_sysbios_heaps_HeapMem_Object__PARAMS__C)
                  00019224    00000024     mmw_per4f.oer4f (.const:ti_sysbios_knl_Semaphore_Object__PARAMS__C)
                  00019248    00000020     mmw_per4f.oer4f (.const:ti_sysbios_family_arm_v7r_vim_Hwi_Object__DESC__C)
                  00019268    00000020     mmw_per4f.oer4f (.const:ti_sysbios_gates_GateHwi_Object__DESC__C)
                  00019288    00000020     mmw_per4f.oer4f (.const:ti_sysbios_gates_GateMutex_Object__DESC__C)
                  000192a8    00000020     mmw_per4f.oer4f (.const:ti_sysbios_heaps_HeapMem_Object__DESC__C)
                  000192c8    00000020     mmw_per4f.oer4f (.const:ti_sysbios_knl_Event_Object__DESC__C)
                  000192e8    00000020     mmw_per4f.oer4f (.const:ti_sysbios_knl_Queue_Object__DESC__C)
                  00019308    00000020     mmw_per4f.oer4f (.const:ti_sysbios_knl_Semaphore_Object__DESC__C)
                  00019328    00000020     mmw_per4f.oer4f (.const:ti_sysbios_knl_Task_Object__DESC__C)
                  00019348    0000001c     libedma_xwr14xx.aer4f : edma_xwr1xxx.oer4f (.const:gEdmaHwAttrs)
                  00019364    00000018     mmw_per4f.oer4f (.const:ti_sysbios_gates_GateHwi_Object__PARAMS__C)
                  0001937c    00000018     mmw_per4f.oer4f (.const:ti_sysbios_gates_GateMutex_Object__PARAMS__C)
                  00019394    00000018     mmw_per4f.oer4f (.const:ti_sysbios_knl_Event_Object__PARAMS__C)
                  000193ac    00000018     mmw_per4f.oer4f (.const:ti_sysbios_knl_Queue_Object__PARAMS__C)
                  000193c4    00000018     mmw_per4f.oer4f (.const:ti_sysbios_knl_Task_hooks__A)
                  000193dc    00000016     mmw_per4f.oer4f (.const:xdc_runtime_Startup_sfxnRts__A)
                  000193f2    00000002     mmw_per4f.oer4f (.const:ti_sysbios_family_arm_v7a_Pmu_Module__id__C)
                  000193f4    00000014     libmailbox_xwr14xx.aer4f : mailbox.oer4f (.const:Mailbox_defaultCfg)
                  00019408    00000014     libadcbuf_xwr14xx.aer4f : adcbuf_mmwave.oer4f (.const:gADCBufFxnTable)
                  0001941c    00000010                             : adcbuf_xwr1xxx.oer4f (.const:gADCBufHwCfg)
                  0001942c    00000010     mmw_per4f.oer4f (.const:ti_sysbios_family_arm_v7r_vim_Hwi_intReqEnaSet__A)
                  0001943c    00000010     mmw_per4f.oer4f (.const:ti_sysbios_family_arm_v7r_vim_Hwi_wakeEnaSet__A)
                  0001944c    0000000c     main_swipe.oer4f (.const:$P$T0$1)
                  00019458    0000000c     mmw_per4f.oer4f (.const:ti_sysbios_knl_Idle_funcList__A)
                  00019464    00000008     libadcbuf_xwr14xx.aer4f : ADCBuf.oer4f (.const:ADCBuf_defaultParams)
                  0001946c    00000008     libedma_xwr14xx.aer4f : edma.oer4f (.const:EDMA_config$1)
                  00019474    00000008     mmw_per4f.oer4f (.const:ti_sysbios_knl_Idle_funcList__C)
                  0001947c    00000008     mmw_per4f.oer4f (.const:ti_sysbios_knl_Task_hooks__C)
                  00019484    00000008     mmw_per4f.oer4f (.const:xdc_runtime_Startup_firstFxns__A)
                  0001948c    00000008     mmw_per4f.oer4f (.const:xdc_runtime_Startup_firstFxns__C)
                  00019494    00000008     mmw_per4f.oer4f (.const:xdc_runtime_Startup_lastFxns__C)
                  0001949c    00000004     mmw_per4f.oer4f (.const:ti_sysbios_family_arm_exc_Exception_E_dataAbort__C)
                  000194a0    00000004     mmw_per4f.oer4f (.const:ti_sysbios_family_arm_exc_Exception_E_prefetchAbort__C)
                  000194a4    00000004     mmw_per4f.oer4f (.const:ti_sysbios_family_arm_exc_Exception_E_swi__C)
                  000194a8    00000004     mmw_per4f.oer4f (.const:ti_sysbios_family_arm_exc_Exception_E_undefinedInstruction__C)
                  000194ac    00000004     mmw_per4f.oer4f (.const:ti_sysbios_family_arm_exc_Exception_excHookFuncs__A)
                  000194b0    00000004     mmw_per4f.oer4f (.const:ti_sysbios_family_arm_exc_Exception_excHookFuncs__C)
                  000194b4    00000004     mmw_per4f.oer4f (.const:ti_sysbios_family_arm_v7a_Pmu_A_invalidCounterId__C)
                  000194b8    00000004     mmw_per4f.oer4f (.const:ti_sysbios_family_arm_v7a_Pmu_Module__diagsEnabled__C)
                  000194bc    00000004     mmw_per4f.oer4f (.const:ti_sysbios_family_arm_v7a_Pmu_Module__diagsIncluded__C)
                  000194c0    00000004     mmw_per4f.oer4f (.const:ti_sysbios_family_arm_v7a_Pmu_Module__diagsMask__C)
                  000194c4    00000004     mmw_per4f.oer4f (.const:ti_sysbios_family_arm_v7r_tms570_Core_E_mismatchedIds__C)
                  000194c8    00000004     mmw_per4f.oer4f (.const:ti_sysbios_family_arm_v7r_tms570_Core_id__C)
                  000194cc    00000004     mmw_per4f.oer4f (.const:ti_sysbios_family_arm_v7r_vim_Hwi_A_badChannelId__C)
                  000194d0    00000004     mmw_per4f.oer4f (.const:ti_sysbios_family_arm_v7r_vim_Hwi_E_alreadyDefined__C)
                  000194d4    00000004     mmw_per4f.oer4f (.const:ti_sysbios_family_arm_v7r_vim_Hwi_E_badIntNum__C)
                  000194d8    00000004     mmw_per4f.oer4f (.const:ti_sysbios_family_arm_v7r_vim_Hwi_E_phantomInterrupt__C)
                  000194dc    00000004     mmw_per4f.oer4f (.const:ti_sysbios_family_arm_v7r_vim_Hwi_E_undefined__C)
                  000194e0    00000004     mmw_per4f.oer4f (.const:ti_sysbios_family_arm_v7r_vim_Hwi_E_unsupportedMaskingOption__C)
                  000194e4    00000004     mmw_per4f.oer4f (.const:ti_sysbios_family_arm_v7r_vim_Hwi_LD_end__C)
                  000194e8    00000004     mmw_per4f.oer4f (.const:ti_sysbios_family_arm_v7r_vim_Hwi_LM_begin__C)
                  000194ec    00000004     mmw_per4f.oer4f (.const:ti_sysbios_family_arm_v7r_vim_Hwi_Module__diagsEnabled__C)
                  000194f0    00000004     mmw_per4f.oer4f (.const:ti_sysbios_family_arm_v7r_vim_Hwi_Module__diagsIncluded__C)
                  000194f4    00000004     mmw_per4f.oer4f (.const:ti_sysbios_family_arm_v7r_vim_Hwi_Module__diagsMask__C)
                  000194f8    00000004     mmw_per4f.oer4f (.const:ti_sysbios_family_arm_v7r_vim_Hwi_Module__loggerFxn1__C)
                  000194fc    00000004     mmw_per4f.oer4f (.const:ti_sysbios_family_arm_v7r_vim_Hwi_Module__loggerFxn8__C)
                  00019500    00000004     mmw_per4f.oer4f (.const:ti_sysbios_family_arm_v7r_vim_Hwi_Module__loggerObj__C)
                  00019504    00000004     mmw_per4f.oer4f (.const:ti_sysbios_family_arm_v7r_vim_Hwi_NUM_INTERRUPTS__C)
                  00019508    00000004     mmw_per4f.oer4f (.const:ti_sysbios_family_arm_v7r_vim_Hwi_channelMap__C)
                  0001950c    00000004     mmw_per4f.oer4f (.const:ti_sysbios_family_arm_v7r_vim_Hwi_intReqEnaSet__C)
                  00019510    00000004     mmw_per4f.oer4f (.const:ti_sysbios_family_arm_v7r_vim_Hwi_phantomFunc__C)
                  00019514    00000004     mmw_per4f.oer4f (.const:ti_sysbios_family_arm_v7r_vim_Hwi_taskDisable__C)
                  00019518    00000004     mmw_per4f.oer4f (.const:ti_sysbios_family_arm_v7r_vim_Hwi_taskRestoreHwi__C)
                  0001951c    00000004     mmw_per4f.oer4f (.const:ti_sysbios_family_arm_v7r_vim_Hwi_wakeEnaSet__C)
                  00019520    00000004     mmw_per4f.oer4f (.const:ti_sysbios_gates_GateMutex_A_badContext__C)
                  00019524    00000004     mmw_per4f.oer4f (.const:ti_sysbios_gates_GateMutex_Instance_State_sem__O)
                  00019528    00000004     mmw_per4f.oer4f (.const:ti_sysbios_gates_GateMutex_Module__diagsEnabled__C)
                  0001952c    00000004     mmw_per4f.oer4f (.const:ti_sysbios_gates_GateMutex_Module__diagsIncluded__C)
                  00019530    00000004     mmw_per4f.oer4f (.const:ti_sysbios_gates_GateMutex_Module__diagsMask__C)
                  00019534    00000004     mmw_per4f.oer4f (.const:ti_sysbios_hal_Hwi_E_stackOverflow__C)
                  00019538    00000004     mmw_per4f.oer4f (.const:ti_sysbios_heaps_HeapBuf_Instance_State_freeList__O)
                  0001953c    00000004     mmw_per4f.oer4f (.const:ti_sysbios_heaps_HeapBuf_Object__count__C)
                  00019540    00000004     mmw_per4f.oer4f (.const:ti_sysbios_heaps_HeapBuf_numConstructedHeaps__C)
                  00019544    00000004     mmw_per4f.oer4f (.const:ti_sysbios_heaps_HeapMem_A_align__C)
                  00019548    00000004     mmw_per4f.oer4f (.const:ti_sysbios_heaps_HeapMem_A_heapSize__C)
                  0001954c    00000004     mmw_per4f.oer4f (.const:ti_sysbios_heaps_HeapMem_A_invalidFree__C)
                  00019550    00000004     mmw_per4f.oer4f (.const:ti_sysbios_heaps_HeapMem_A_zeroBlock__C)
                  00019554    00000004     mmw_per4f.oer4f (.const:ti_sysbios_heaps_HeapMem_E_memory__C)
                  00019558    00000004     mmw_per4f.oer4f (.const:ti_sysbios_heaps_HeapMem_Module__diagsEnabled__C)
                  0001955c    00000004     mmw_per4f.oer4f (.const:ti_sysbios_heaps_HeapMem_Module__diagsIncluded__C)
                  00019560    00000004     mmw_per4f.oer4f (.const:ti_sysbios_heaps_HeapMem_Module__diagsMask__C)
                  00019564    00000004     mmw_per4f.oer4f (.const:ti_sysbios_heaps_HeapMem_Module__gateObj__C)
                  00019568    00000004     mmw_per4f.oer4f (.const:ti_sysbios_heaps_HeapMem_Object__count__C)
                  0001956c    00000004     mmw_per4f.oer4f (.const:ti_sysbios_heaps_HeapMem_reqAlign__C)
                  00019570    00000004     mmw_per4f.oer4f (.const:ti_sysbios_knl_Clock_LM_begin__C)
                  00019574    00000004     mmw_per4f.oer4f (.const:ti_sysbios_knl_Clock_LM_tick__C)
                  00019578    00000004     mmw_per4f.oer4f (.const:ti_sysbios_knl_Clock_LW_delayed__C)
                  0001957c    00000004     mmw_per4f.oer4f (.const:ti_sysbios_knl_Clock_Module_State_clockQ__O)
                  00019580    00000004     mmw_per4f.oer4f (.const:ti_sysbios_knl_Clock_Module__diagsEnabled__C)
                  00019584    00000004     mmw_per4f.oer4f (.const:ti_sysbios_knl_Clock_Module__diagsIncluded__C)
                  00019588    00000004     mmw_per4f.oer4f (.const:ti_sysbios_knl_Clock_Module__diagsMask__C)
                  0001958c    00000004     mmw_per4f.oer4f (.const:ti_sysbios_knl_Clock_Module__loggerFxn1__C)
                  00019590    00000004     mmw_per4f.oer4f (.const:ti_sysbios_knl_Clock_Module__loggerFxn2__C)
                  00019594    00000004     mmw_per4f.oer4f (.const:ti_sysbios_knl_Clock_Module__loggerObj__C)
                  00019598    00000004     mmw_per4f.oer4f (.const:ti_sysbios_knl_Event_A_badContext__C)
                  0001959c    00000004     mmw_per4f.oer4f (.const:ti_sysbios_knl_Event_A_eventInUse__C)
                  000195a0    00000004     mmw_per4f.oer4f (.const:ti_sysbios_knl_Event_A_nullEventId__C)
                  000195a4    00000004     mmw_per4f.oer4f (.const:ti_sysbios_knl_Event_A_nullEventMasks__C)
                  000195a8    00000004     mmw_per4f.oer4f (.const:ti_sysbios_knl_Event_A_pendTaskDisabled__C)
                  000195ac    00000004     mmw_per4f.oer4f (.const:ti_sysbios_knl_Event_Instance_State_pendQ__O)
                  000195b0    00000004     mmw_per4f.oer4f (.const:ti_sysbios_knl_Event_LM_pend__C)
                  000195b4    00000004     mmw_per4f.oer4f (.const:ti_sysbios_knl_Event_LM_post__C)
                  000195b8    00000004     mmw_per4f.oer4f (.const:ti_sysbios_knl_Event_Module__diagsEnabled__C)
                  000195bc    00000004     mmw_per4f.oer4f (.const:ti_sysbios_knl_Event_Module__diagsIncluded__C)
                  000195c0    00000004     mmw_per4f.oer4f (.const:ti_sysbios_knl_Event_Module__diagsMask__C)
                  000195c4    00000004     mmw_per4f.oer4f (.const:ti_sysbios_knl_Event_Module__loggerFxn4__C)
                  000195c8    00000004     mmw_per4f.oer4f (.const:ti_sysbios_knl_Event_Module__loggerFxn8__C)
                  000195cc    00000004     mmw_per4f.oer4f (.const:ti_sysbios_knl_Event_Module__loggerObj__C)
                  000195d0    00000004     mmw_per4f.oer4f (.const:ti_sysbios_knl_Semaphore_A_badContext__C)
                  000195d4    00000004     mmw_per4f.oer4f (.const:ti_sysbios_knl_Semaphore_A_noEvents__C)
                  000195d8    00000004     mmw_per4f.oer4f (.const:ti_sysbios_knl_Semaphore_A_overflow__C)
                  000195dc    00000004     mmw_per4f.oer4f (.const:ti_sysbios_knl_Semaphore_A_pendTaskDisabled__C)
                  000195e0    00000004     mmw_per4f.oer4f (.const:ti_sysbios_knl_Semaphore_Instance_State_pendQ__O)
                  000195e4    00000004     mmw_per4f.oer4f (.const:ti_sysbios_knl_Semaphore_LM_pend__C)
                  000195e8    00000004     mmw_per4f.oer4f (.const:ti_sysbios_knl_Semaphore_LM_post__C)
                  000195ec    00000004     mmw_per4f.oer4f (.const:ti_sysbios_knl_Semaphore_Module__diagsEnabled__C)
                  000195f0    00000004     mmw_per4f.oer4f (.const:ti_sysbios_knl_Semaphore_Module__diagsIncluded__C)
                  000195f4    00000004     mmw_per4f.oer4f (.const:ti_sysbios_knl_Semaphore_Module__diagsMask__C)
                  000195f8    00000004     mmw_per4f.oer4f (.const:ti_sysbios_knl_Semaphore_Module__loggerFxn2__C)
                  000195fc    00000004     mmw_per4f.oer4f (.const:ti_sysbios_knl_Semaphore_Module__loggerFxn4__C)
                  00019600    00000004     mmw_per4f.oer4f (.const:ti_sysbios_knl_Semaphore_Module__loggerObj__C)
                  00019604    00000004     mmw_per4f.oer4f (.const:ti_sysbios_knl_Task_A_badPriority__C)
                  00019608    00000004     mmw_per4f.oer4f (.const:ti_sysbios_knl_Task_A_badTaskState__C)
                  0001960c    00000004     mmw_per4f.oer4f (.const:ti_sysbios_knl_Task_A_badThreadType__C)
                  00019610    00000004     mmw_per4f.oer4f (.const:ti_sysbios_knl_Task_A_noPendElem__C)
                  00019614    00000004     mmw_per4f.oer4f (.const:ti_sysbios_knl_Task_E_spOutOfBounds__C)
                  00019618    00000004     mmw_per4f.oer4f (.const:ti_sysbios_knl_Task_E_stackOverflow__C)
                  0001961c    00000004     mmw_per4f.oer4f (.const:ti_sysbios_knl_Task_LD_block__C)
                  00019620    00000004     mmw_per4f.oer4f (.const:ti_sysbios_knl_Task_LD_exit__C)
                  00019624    00000004     mmw_per4f.oer4f (.const:ti_sysbios_knl_Task_LD_ready__C)
                  00019628    00000004     mmw_per4f.oer4f (.const:ti_sysbios_knl_Task_LM_switch__C)
                  0001962c    00000004     mmw_per4f.oer4f (.const:ti_sysbios_knl_Task_Module_State_inactiveQ__O)
                  00019630    00000004     mmw_per4f.oer4f (.const:ti_sysbios_knl_Task_Module__diagsEnabled__C)
                  00019634    00000004     mmw_per4f.oer4f (.const:ti_sysbios_knl_Task_Module__diagsIncluded__C)
                  00019638    00000004     mmw_per4f.oer4f (.const:ti_sysbios_knl_Task_Module__diagsMask__C)
                  0001963c    00000004     mmw_per4f.oer4f (.const:ti_sysbios_knl_Task_Module__loggerFxn2__C)
                  00019640    00000004     mmw_per4f.oer4f (.const:ti_sysbios_knl_Task_Module__loggerFxn4__C)
                  00019644    00000004     mmw_per4f.oer4f (.const:ti_sysbios_knl_Task_Module__loggerObj__C)
                  00019648    00000004     mmw_per4f.oer4f (.const:ti_sysbios_knl_Task_Object__count__C)
                  0001964c    00000004     mmw_per4f.oer4f (.const:ti_sysbios_knl_Task_Object__heap__C)
                  00019650    00000004     mmw_per4f.oer4f (.const:ti_sysbios_knl_Task_allBlockedFunc__C)
                  00019654    00000004     mmw_per4f.oer4f (.const:ti_sysbios_knl_Task_defaultStackHeap__C)
                  00019658    00000004     mmw_per4f.oer4f (.const:ti_sysbios_knl_Task_defaultStackSize__C)
                  0001965c    00000004     mmw_per4f.oer4f (.const:ti_sysbios_knl_Task_numConstructedTasks__C)
                  00019660    00000004     mmw_per4f.oer4f (.const:ti_sysbios_timers_rti_Timer_E_cannotSupport__C)
                  00019664    00000004     mmw_per4f.oer4f (.const:ti_sysbios_timers_rti_Timer_Module__diagsEnabled__C)
                  00019668    00000004     mmw_per4f.oer4f (.const:ti_sysbios_timers_rti_Timer_Module__diagsIncluded__C)
                  0001966c    00000004     mmw_per4f.oer4f (.const:ti_sysbios_timers_rti_Timer_Module__diagsMask__C)
                  00019670    00000004     mmw_per4f.oer4f (.const:ti_sysbios_timers_rti_Timer_numTimerDevices__C)
                  00019674    00000004     mmw_per4f.oer4f (.const:ti_sysbios_timers_rti_Timer_startupNeeded__C)
                  00019678    00000004     mmw_per4f.oer4f (.const:ti_sysbios_utils_Load_LS_cpuLoad__C)
                  0001967c    00000004     mmw_per4f.oer4f (.const:ti_sysbios_utils_Load_LS_taskLoad__C)
                  00019680    00000004     mmw_per4f.oer4f (.const:ti_sysbios_utils_Load_Module_State_taskList__O)
                  00019684    00000004     mmw_per4f.oer4f (.const:ti_sysbios_utils_Load_Module__diagsEnabled__C)
                  00019688    00000004     mmw_per4f.oer4f (.const:ti_sysbios_utils_Load_Module__diagsIncluded__C)
                  0001968c    00000004     mmw_per4f.oer4f (.const:ti_sysbios_utils_Load_Module__diagsMask__C)
                  00019690    00000004     mmw_per4f.oer4f (.const:ti_sysbios_utils_Load_Module__loggerFxn1__C)
                  00019694    00000004     mmw_per4f.oer4f (.const:ti_sysbios_utils_Load_Module__loggerFxn4__C)
                  00019698    00000004     mmw_per4f.oer4f (.const:ti_sysbios_utils_Load_Module__loggerObj__C)
                  0001969c    00000004     mmw_per4f.oer4f (.const:ti_sysbios_utils_Load_postUpdate__C)
                  000196a0    00000004     mmw_per4f.oer4f (.const:ti_sysbios_utils_Load_windowInMs__C)
                  000196a4    00000004     mmw_per4f.oer4f (.const:xdc_runtime_Assert_E_assertFailed__C)
                  000196a8    00000004     mmw_per4f.oer4f (.const:xdc_runtime_Core_A_initializedParams__C)
                  000196ac    00000004     mmw_per4f.oer4f (.const:xdc_runtime_Core_Module__diagsEnabled__C)
                  000196b0    00000004     mmw_per4f.oer4f (.const:xdc_runtime_Core_Module__diagsIncluded__C)
                  000196b4    00000004     mmw_per4f.oer4f (.const:xdc_runtime_Core_Module__diagsMask__C)
                  000196b8    00000004     mmw_per4f.oer4f (.const:xdc_runtime_Error_E_memory__C)
                  000196bc    00000004     mmw_per4f.oer4f (.const:xdc_runtime_Error_Module__diagsEnabled__C)
                  000196c0    00000004     mmw_per4f.oer4f (.const:xdc_runtime_Error_Module__diagsIncluded__C)
                  000196c4    00000004     mmw_per4f.oer4f (.const:xdc_runtime_Error_Module__diagsMask__C)
                  000196c8    00000004     mmw_per4f.oer4f (.const:xdc_runtime_Error_Module__loggerFxn8__C)
                  000196cc    00000004     mmw_per4f.oer4f (.const:xdc_runtime_Error_Module__loggerObj__C)
                  000196d0    00000004     mmw_per4f.oer4f (.const:xdc_runtime_Error_policyFxn__C)
                  000196d4    00000004     mmw_per4f.oer4f (.const:xdc_runtime_Error_raiseHook__C)
                  000196d8    00000004     mmw_per4f.oer4f (.const:xdc_runtime_IGateProvider_Interface__BASE__C)
                  000196dc    00000004     mmw_per4f.oer4f (.const:xdc_runtime_IHeap_Interface__BASE__C)
                  000196e0    00000004     mmw_per4f.oer4f (.const:xdc_runtime_IModule_Interface__BASE__C)
                  000196e4    00000004     mmw_per4f.oer4f (.const:xdc_runtime_Log_L_error__C)
                  000196e8    00000004     mmw_per4f.oer4f (.const:xdc_runtime_Memory_defaultHeapInstance__C)
                  000196ec    00000004     mmw_per4f.oer4f (.const:xdc_runtime_Startup_execImpl__C)
                  000196f0    00000004     mmw_per4f.oer4f (.const:xdc_runtime_Startup_maxPasses__C)
                  000196f4    00000004     mmw_per4f.oer4f (.const:xdc_runtime_Startup_sfxnRts__C)
                  000196f8    00000004     mmw_per4f.oer4f (.const:xdc_runtime_Startup_sfxnTab__C)
                  000196fc    00000004     mmw_per4f.oer4f (.const:xdc_runtime_System_Module__gateObj__C)
                  00019700    00000004     mmw_per4f.oer4f (.const:xdc_runtime_System_abortFxn__C)
                  00019704    00000004     mmw_per4f.oer4f (.const:xdc_runtime_System_exitFxn__C)
                  00019708    00000004     mmw_per4f.oer4f (.const:xdc_runtime_System_extendFxn__C)
                  0001970c    00000004     mmw_per4f.oer4f (.const:xdc_runtime_System_maxAtexitHandlers__C)
                  00019710    00000004     mmw_per4f.oer4f (.const:xdc_runtime_Text_charTab__C)
                  00019714    00000004     mmw_per4f.oer4f (.const:xdc_runtime_Text_nameEmpty__C)
                  00019718    00000004     mmw_per4f.oer4f (.const:xdc_runtime_Text_nameStatic__C)
                  0001971c    00000004     mmw_per4f.oer4f (.const:xdc_runtime_Text_nameUnknown__C)
                  00019720    00000004     mmw_per4f.oer4f (.const:xdc_runtime_Text_visitRopeFxn__C)
                  00019724    00000002     mmw_per4f.oer4f (.const:ti_sysbios_family_arm_v7r_tms570_Core_Module__id__C)
                  00019726    00000002     mmw_per4f.oer4f (.const:ti_sysbios_family_arm_v7r_vim_Hwi_Module__id__C)
                  00019728    00000002     mmw_per4f.oer4f (.const:ti_sysbios_family_arm_v7r_vim_Hwi_Module__loggerDefined__C)
                  0001972a    00000002     mmw_per4f.oer4f (.const:ti_sysbios_gates_GateMutex_Module__id__C)
                  0001972c    00000002     mmw_per4f.oer4f (.const:ti_sysbios_hal_Hwi_Module__id__C)
                  0001972e    00000002     mmw_per4f.oer4f (.const:ti_sysbios_heaps_HeapMem_Module__id__C)
                  00019730    00000002     mmw_per4f.oer4f (.const:ti_sysbios_knl_Clock_Module__id__C)
                  00019732    00000002     mmw_per4f.oer4f (.const:ti_sysbios_knl_Clock_Module__loggerDefined__C)
                  00019734    00000002     mmw_per4f.oer4f (.const:ti_sysbios_knl_Event_Module__id__C)
                  00019736    00000002     mmw_per4f.oer4f (.const:ti_sysbios_knl_Event_Module__loggerDefined__C)
                  00019738    00000002     mmw_per4f.oer4f (.const:ti_sysbios_knl_Semaphore_Module__id__C)
                  0001973a    00000002     mmw_per4f.oer4f (.const:ti_sysbios_knl_Semaphore_Module__loggerDefined__C)
                  0001973c    00000002     mmw_per4f.oer4f (.const:ti_sysbios_knl_Task_Module__id__C)
                  0001973e    00000002     mmw_per4f.oer4f (.const:ti_sysbios_knl_Task_Module__loggerDefined__C)
                  00019740    00000002     mmw_per4f.oer4f (.const:ti_sysbios_timers_rti_Timer_Module__id__C)
                  00019742    00000002     mmw_per4f.oer4f (.const:ti_sysbios_timers_rti_Timer_continueOnSuspend__C)
                  00019744    00000002     mmw_per4f.oer4f (.const:ti_sysbios_utils_Load_Module__id__C)
                  00019746    00000002     mmw_per4f.oer4f (.const:ti_sysbios_utils_Load_Module__loggerDefined__C)
                  00019748    00000002     mmw_per4f.oer4f (.const:ti_sysbios_utils_Load_autoAddTasks__C)
                  0001974a    00000002     mmw_per4f.oer4f (.const:ti_sysbios_utils_Load_updateInIdle__C)
                  0001974c    00000002     mmw_per4f.oer4f (.const:xdc_runtime_Core_Module__id__C)
                  0001974e    00000002     mmw_per4f.oer4f (.const:xdc_runtime_Error_Module__loggerDefined__C)
                  00019750    00000002     mmw_per4f.oer4f (.const:xdc_runtime_Error_maxDepth__C)
                  00019752    00000002     mmw_per4f.oer4f (.const:xdc_runtime_Main_Module__id__C)
                  00019754    00000002     mmw_per4f.oer4f (.const:xdc_runtime_Memory_Module__id__C)
                  00019756    00000002     mmw_per4f.oer4f (.const:xdc_runtime_Text_charCnt__C)
                  00019758    00000002     mmw_per4f.oer4f (.const:xdc_runtime_Text_isLoaded__C)
                  0001975a    00000002     mmw_per4f.oer4f (.const:xdc_runtime_Text_registryModsLastId__C)
                  0001975c    00000002     mmw_per4f.oer4f (.const:xdc_runtime_Text_unnamedModsLastId__C)
                  0001975e    00000001     mmw_per4f.oer4f (.const:xdc_runtime_Text_charTab__A)

.cinit     0    00019760    000003b0     
                  00019760    0000036c     (.cinit..data.load) [load image, compression = lzss]
                  00019acc    0000000c     (__TI_handler_table)
                  00019ad8    00000008     (.cinit..bss.load) [load image, compression = zero_init]
                  00019ae0    00000008     (.cinit..myFiqStack.load) [load image, compression = zero_init]
                  00019ae8    00000008     (.cinit.systemHeap.load) [load image, compression = zero_init]
                  00019af0    00000020     (__TI_cinit_table)

systemHeap 
*          0    08000000    00008000     UNINITIALIZED
                  08000000    00008000     mmw_per4f.oer4f (systemHeap)

.bss       0    08008000    00001cbc     UNINITIALIZED
                  08008000    00001000     (.common:ti_sysbios_family_arm_exc_Exception_Module_State_0_excStack_0__A)
                  08009000    00000320     mmw_per4f.oer4f (.bss:taskStackSection)
                  08009320    0000027c     libedma_xwr14xx.aer4f : edma.oer4f (.bss:$O1$$)
                  0800959c    000001a0     (.common:gCLI)
                  0800973c    00000140     HandCraftedclassifier.oer4f (.bss:$O1$$)
                  0800987c    00000120     rtsv7R4_T_le_v3D16_eabi.lib : trgmsg.obj (.bss:_CIOBUF_)
                  0800999c    00000114     (.common:gGPIOMCB)
                  08009ab0    000000d4     (.common:gMMWave_MCB)
                  08009b84    000000a0     (.common:__TI_tmpnams)
                  08009c24    00000070     (.common:gEsmMCB)
                  08009c94    00000018     (.common:gMmwSessionMgmtMCB)
                  08009cac    00000008     (.common:parmbuf)
                  08009cb4    00000004     (.common:gHWADriverPtr)
                  08009cb8    00000004     (.common:ti_sysbios_knl_Task_Instance_State_0_hookEnv__A)

.data      0    08009cc0    00001a96     UNINITIALIZED
                  08009cc0    00000b48     main_swipe.oer4f (.data:$O1$$)
                  0800a808    000003f0     libmmwavelink_xwr14xx.aer4f : rl_driver.oer4f (.data:$O1$$)
                  0800abf8    00000200     mmw_per4f.oer4f (.data:ti_sysbios_family_arm_v7r_vim_Hwi_Module_State_0_dispatchTable__A)
                  0800adf8    00000190     libcli_xwr14xx.aer4f : cli_mmwave.oer4f (.data:$O1$$)
                  0800af88    000000f0     rtsv7R4_T_le_v3D16_eabi.lib : defs.obj (.data:_ftable)
                  0800b078    00000098     mmw_per4f.oer4f (.data:ti_sysbios_utils_Load_Module__state__V)
                  0800b110    00000080     mmw_per4f.oer4f (.data:ti_sysbios_knl_Task_Module_State_0_readyQ__A)
                  0800b190    00000078     rtsv7R4_T_le_v3D16_eabi.lib : write.obj (.data:_device)
                  0800b208    00000050                                 : write.obj (.data:_stream)
                  0800b258    00000050     libuart_xwr14xx.aer4f : uart_xwr14xx.oer4f (.data:gUartSciHwCfg)
                  0800b2a8    0000004c     mmw_per4f.oer4f (.data:ti_sysbios_knl_Task_Object__table__V)
                  0800b2f4    00000048     libmailbox_xwr14xx.aer4f : mailbox.oer4f (.data:gMailboxMCB)
                  0800b33c    00000044     mmw_per4f.oer4f (.data:ti_sysbios_knl_Task_Module__state__V)
                  0800b380    00000038     mmw_per4f.oer4f (.data:ti_sysbios_gates_GateMutex_Object__table__V)
                  0800b3b8    00000038     mmw_per4f.oer4f (.data:ti_sysbios_timers_rti_Timer_Object__table__V)
                  0800b3f0    00000034     mmw_per4f.oer4f (.data:ti_sysbios_family_arm_v7r_vim_Hwi_Module__state__V)
                  0800b424    0000002c     mmw_per4f.oer4f (.data:ti_sysbios_family_arm_v7r_vim_Hwi_Object__table__V)
                  0800b450    0000002c     mmw_per4f.oer4f (.data:ti_sysbios_knl_Clock_Module__state__V)
                  0800b47c    00000028     libuart_xwr14xx.aer4f : uartsci.oer4f (.data:gUartSciFxnTable)
                  0800b4a4    00000024     libsoc_xwr14xx.aer4f : soc_xwr14xx.oer4f (.data:SOC_TranslateAddr_LUT)
                  0800b4c8    00000024     libuart_xwr14xx.aer4f : uart_xwr14xx.oer4f (.data:UART_config)
                  0800b4ec    00000024     libhwa_xwr14xx.aer4f : hwa_xwr14xx.oer4f (.data:gHWAHwCfg)
                  0800b510    00000024     mmw_per4f.oer4f (.data:ti_sysbios_BIOS_Module__state__V)
                  0800b534    00000020     mmw_per4f.oer4f (.data:ti_sysbios_knl_Clock_Object__table__V)
                  0800b554    00000020     mmw_per4f.oer4f (.data:xdc_runtime_Error_IgnoreBlock)
                  0800b574    00000020     mmw_per4f.oer4f (.data:xdc_runtime_System_Module_State_0_atexitHandlers__A)
                  0800b594    0000001c     mmw_per4f.oer4f (.data:ti_sysbios_utils_Load_Module_State_0_taskEnv__A)
                  0800b5b0    00000018     libadcbuf_xwr14xx.aer4f : adcbuf_xwr1xxx.oer4f (.data:ADCBuf_config)
                  0800b5c8    00000018     libmailbox_xwr14xx.aer4f : mailbox_xwr14xx.oer4f (.data:gMailboxMssBssHwCfg)
                  0800b5e0    00000018     mmw_per4f.oer4f (.data:ti_sysbios_heaps_HeapMem_Object__table__V)
                  0800b5f8    00000018     mmw_per4f.oer4f (.data:ti_sysbios_timers_rti_Timer_Module_State_0_device__A)
                  0800b610    00000014     mmw_per4f.oer4f (.data:ti_sysbios_family_arm_exc_Exception_Module__state__V)
                  0800b624    00000010     libsoc_xwr14xx.aer4f : soc_xwr14xx.oer4f (.data:gSOCHwAttrib)
                  0800b634    00000010     rtsv7R4_T_le_v3D16_eabi.lib : defs.obj (.data)
                  0800b644    00000010     mmw_per4f.oer4f (.data:ti_sysbios_timers_rti_Timer_Module_State_0_intFreqs__A)
                  0800b654    00000010     mmw_per4f.oer4f (.data:ti_sysbios_timers_rti_Timer_Module__state__V)
                  0800b664    0000000c     rtsv7R4_T_le_v3D16_eabi.lib : exit.obj (.data:$O1$$)
                  0800b670    0000000c     libesm_xwr14xx.aer4f : esm_xwr1xxx.oer4f (.data:gESMHwCfgAttrs)
                  0800b67c    0000000c     mmw_per4f.oer4f (.data:ti_sysbios_family_arm_v7a_Pmu_Module__state__V)
                  0800b688    00000008     rtsv7R4_T_le_v3D16_eabi.lib : _lock.obj (.data:$O1$$)
                  0800b690    00000008     libgpio_xwr14xx.aer4f : gpio_xwr14xx.oer4f (.data:gGPIOHwAtrrib)
                  0800b698    00000008     mmw_per4f.oer4f (.data:ti_sysbios_family_arm_v7r_vim_Hwi_Module__root__V)
                  0800b6a0    00000008     mmw_per4f.oer4f (.data:ti_sysbios_gates_GateHwi_Module__root__V)
                  0800b6a8    00000008     mmw_per4f.oer4f (.data:ti_sysbios_gates_GateMutex_Module__root__V)
                  0800b6b0    00000008     mmw_per4f.oer4f (.data:ti_sysbios_hal_Hwi_Object__table__V)
                  0800b6b8    00000008     mmw_per4f.oer4f (.data:ti_sysbios_heaps_HeapMem_Module__root__V)
                  0800b6c0    00000008     mmw_per4f.oer4f (.data:ti_sysbios_knl_Event_Module__root__V)
                  0800b6c8    00000008     mmw_per4f.oer4f (.data:ti_sysbios_knl_Queue_Module__root__V)
                  0800b6d0    00000008     mmw_per4f.oer4f (.data:ti_sysbios_knl_Semaphore_Module__root__V)
                  0800b6d8    00000008     mmw_per4f.oer4f (.data:ti_sysbios_knl_Task_Module__root__V)
                  0800b6e0    00000008     mmw_per4f.oer4f (.data:ti_sysbios_timers_rti_Timer_Module_State_0_handles__A)
                  0800b6e8    00000008     mmw_per4f.oer4f (.data:xdc_runtime_Registry_Module__state__V)
                  0800b6f0    00000008     mmw_per4f.oer4f (.data:xdc_runtime_Startup_Module__state__V)
                  0800b6f8    00000008     mmw_per4f.oer4f (.data:xdc_runtime_System_Module__state__V)
                  0800b700    00000004     libadcbuf_xwr14xx.aer4f : ADCBuf.oer4f (.data)
                  0800b704    00000004     libcrc_xwr14xx.aer4f : crc_xwr14xx.oer4f (.data)
                  0800b708    00000004     libedma_xwr14xx.aer4f : edma_low_level.oer4f (.data)
                  0800b70c    00000004     libpinmux_xwr14xx.aer4f : pinmux_xwr1xxx.oer4f (.data)
                  0800b710    00000004     libuart_xwr14xx.aer4f : UART.oer4f (.data)
                  0800b714    00000004     rtsv7R4_T_le_v3D16_eabi.lib : errno.obj (.data)
                  0800b718    00000004                                 : fopen.obj (.data)
                  0800b71c    00000004                                 : open.obj (.data)
                  0800b720    00000004                                 : stkdepth_vars.obj (.data)
                  0800b724    00000004                                 : strtok.obj (.data)
                  0800b728    00000004     mmw_per4f.oer4f (.data:ti_sysbios_family_arm_a15_TimestampProvider_Module__state__V)
                  0800b72c    00000004     mmw_per4f.oer4f (.data:ti_sysbios_family_arm_exc_Exception_Module_State_0_excContext__A)
                  0800b730    00000004     mmw_per4f.oer4f (.data:ti_sysbios_family_arm_exc_Exception_Module_State_0_excStackBuffers__A)
                  0800b734    00000004     mmw_per4f.oer4f (.data:ti_sysbios_family_arm_exc_Exception_Module_State_0_excStack__A)
                  0800b738    00000004     mmw_per4f.oer4f (.data:ti_sysbios_gates_GateHwi_Object__table__V)
                  0800b73c    00000004     mmw_per4f.oer4f (.data:ti_sysbios_heaps_HeapBuf_Module__state__V)
                  0800b740    00000004     mmw_per4f.oer4f (.data:ti_sysbios_knl_Task_Module_State_0_idleTask__A)
                  0800b744    00000004     mmw_per4f.oer4f (.data:ti_sysbios_utils_Load_Module_State_0_runningTask__A)
                  0800b748    00000004     mmw_per4f.oer4f (.data:ti_sysbios_utils_Load_Module_State_0_taskStartTime__A)
                  0800b74c    00000004     mmw_per4f.oer4f (.data:xdc_runtime_Memory_Module__state__V)
                  0800b750    00000002     gesture_swipe.oer4f (.data)
                  0800b752    00000002     mmw_per4f.oer4f (.data:ti_sysbios_family_arm_exc_Exception_Module_State_0_excActive__A)
                  0800b754    00000002     mmw_per4f.oer4f (.data:xdc_runtime_Error_Module__state__V)

.myFiqStack 
*          0    0800b758    00000800     UNINITIALIZED
                  0800b758    00000800     mmw_per4f.oer4f (.myFiqStack)

.stack     0    0800bf58    000004b0     UNINITIALIZED
                  0800bf58    000004b0     --HOLE--

.overlay   0    51020000    00000b70     
                  51020000    00000270     main_swipe.oer4f (.text:MmwDemo_initTask)
                  51020270    00000070     libmailbox_xwr14xx.aer4f : mailbox.oer4f (.text:Mailbox_init)
                  510202e0    000000df     data_path.oer4f (.text:MmwDemo_edmaInit)
                  510203bf    00000001     --HOLE-- [fill = 0]
                  510203c0    00000224     libuart_xwr14xx.aer4f : uartsci.oer4f (.text:UartSci_open)
                  510205e4    000000dc     libmmwave_xwr14xx.aer4f : mmwave.oer4f (.text:MMWave_init)
                  510206c0    00000098                             : mmwave_link.oer4f (.text:MMWave_initLink)
                  51020758    00000012     libcrc_xwr14xx.aer4f : crc.oer4f (.text:CRC_initConfigParams)
                  5102076a    00000002     --HOLE-- [fill = 0]
                  5102076c    000001f8                          : crc.oer4f (.text:CRC_open)
                  51020964    0000008c     libmmwavelink_xwr14xx.aer4f : rl_device.oer4f (.text:rlDevicePowerOn)
                  510209f0    00000008                                 : rl_driver.oer4f (.tramp.rlDriverDeInit.1)
                  510209f8    00000008                                 : rl_driver.oer4f (.tramp.rlDriverInit.1)
                  51020a00    00000008                                 : rl_device.oer4f (.tramp.rlDevicePowerOff.1)
                  51020a08    00000008                                 : rl_driver.oer4f (.tramp.rlDriverGetHandle.1)
                  51020a10    00000008     libosal_xwr14xx.aer4f : MemoryP_tirtos.oer4f (.tramp.MemoryP_ctrlFree.1)
                  51020a18    00000008     libcrc_xwr14xx.aer4f : crc.oer4f (.tramp.CRC_getCRCTypeBitValue.1)
                  51020a20    00000008                          : crc.oer4f (.tramp.CSL_FINSR.1)
                  51020a28    00000008                          : crc.oer4f (.tramp.CRC_getCRCDataSelectBitValue.1)
                  51020a30    00000008     libmmwave_xwr14xx.aer4f : mmwave_link.oer4f (.tramp.MMWave_initMMWaveLink.1)
                  51020a38    00000008                             : mmwave_listlib.oer4f (.tramp.MMWave_listAdd.1)
                  51020a40    00000008                             : mmwave.oer4f (.tramp.MMWave_decodeErrorLevel.1)
                  51020a48    00000008                             : mmwave.oer4f (.tramp.MMWave_encodeError.1)
                  51020a50    00000008                             : mmwave_xwr14xx.oer4f (.tramp.MMWave_deviceInitFxn.1)
                  51020a58    00000008     rtsv7R4_T_le_v3D16_eabi.lib : memcpy_t2.obj (.tramp.memcpy.2)
                  51020a60    00000008     libosal_xwr14xx.aer4f : HwiP_tirtos.oer4f (.tramp.HwiP_create.1)
                  51020a68    00000008                           : HwiP_tirtos.oer4f (.tramp.HwiP_Params_init.1)
                  51020a70    00000008     libuart_xwr14xx.aer4f : uartsci.oer4f (.tramp.CSL_FINSR.1)
                  51020a78    00000008     libosal_xwr14xx.aer4f : SemaphoreP_tirtos.oer4f (.tramp.SemaphoreP_create.1)
                  51020a80    00000008                           : SemaphoreP_tirtos.oer4f (.tramp.SemaphoreP_Params_init.1)
                  51020a88    00000008                           : MemoryP_tirtos.oer4f (.tramp.MemoryP_ctrlAlloc.1)
                  51020a90    00000008     main_swipe.oer4f (.tramp._MmwDemo_debugAssert.1)
                  51020a98    00000008     libedma_xwr14xx.aer4f : edma.oer4f (.tramp.EDMA_init.1)
                  51020aa0    00000008                           : edma.oer4f (.tramp.EDMA_getNumInstances.1)
                  51020aa8    00000008     libosal_xwr14xx.aer4f : HwiP_tirtos.oer4f (.tramp.HwiP_restore.1)
                  51020ab0    00000008                           : HwiP_tirtos.oer4f (.tramp.HwiP_disable.1)
                  51020ab8    00000008                           : DebugP_tirtos.oer4f (.tramp._DebugP_assert.1)
                  51020ac0    00000008     sysbios.aer4f : BIOS.obj (.tramp.ti_sysbios_family_arm_v7a_Pmu_getCount__E.1)
                  51020ac8    00000008     mmw_per4f.oer4f (.tramp.ti_sysbios_knl_Semaphore_create.1)
                  51020ad0    00000008     mmw_per4f.oer4f (.tramp.ti_sysbios_knl_Semaphore_Params__init__S.1)
                  51020ad8    00000008     libcli_xwr14xx.aer4f : cli.oer4f (.tramp.CLI_write.1)
                  51020ae0    00000008     libsoc_xwr14xx.aer4f : soc.oer4f (.tramp.SOC_registerSysIntListener.1)
                  51020ae8    00000008     sensor_mgmt.oer4f (.tramp.MmwDemo_sensorMgmtInit.1)
                  51020af0    00000008     mmw_cli.oer4f (.tramp.MmwDemo_CLIInit.1)
                  51020af8    00000008     mmw_per4f.oer4f (.tramp.ti_sysbios_knl_Task_create.1)
                  51020b00    00000008     mmw_per4f.oer4f (.tramp.ti_sysbios_knl_Task_Params__init__S.1)
                  51020b08    00000008     sysbios.aer4f : BIOS.obj (.tramp.ti_sysbios_family_arm_v7a_Pmu_startCounter__E.1)
                  51020b10    00000008                   : BIOS.obj (.tramp.ti_sysbios_family_arm_v7a_Pmu_configureCounter__E.1)
                  51020b18    00000008     main_swipe.oer4f (.tramp.MmwDemo_dataPathOpen.1)
                  51020b20    00000008     libmmwave_xwr14xx.aer4f : mmwave.oer4f (.tramp.MMWave_sync.1)
                  51020b28    00000008     rtsv7R4_T_le_v3D16_eabi.lib : memset_t2.obj (.tramp.memset.2)
                  51020b30    00000008     libuart_xwr14xx.aer4f : UART.oer4f (.tramp.UART_open.1)
                  51020b38    00000008                           : UART.oer4f (.tramp.UART_Params_init.1)
                  51020b40    00000008     libpinmux_xwr14xx.aer4f : pinmux.oer4f (.tramp.Pinmux_Set_FuncSel.1)
                  51020b48    00000008                             : pinmux.oer4f (.tramp.Pinmux_Set_OverrideCtrl.1)
                  51020b50    00000008     main_swipe.oer4f (.tramp.MmwDemo_dataPathInit.1)
                  51020b58    00000008     libgpio_xwr14xx.aer4f : gpio.oer4f (.tramp.GPIO_init.1)
                  51020b60    00000008     libuart_xwr14xx.aer4f : UART.oer4f (.tramp.UART_init.1)
                  51020b68    00000008     mmw_per4f.oer4f (.tramp.xdc_runtime_System_printf__E.1)

.hwaBufs   0    52030000    00010000     UNINITIALIZED
                  52030000    00010000     data_path.oer4f (.hwaBufs)

.l3ram     1    51020000    00040000     UNINITIALIZED
                  51020000    00040000     main_swipe.oer4f (.l3ram)

xdc.meta   0    00000000    000000f7     COPY SECTION
                  00000000    000000f7     mmw_per4f.oer4f (xdc.meta)

xdc.noload 
*          0    00000000    00000000     COPY SECTION

MODULE SUMMARY

       Module                          code     ro data   rw data
       ------                          ----     -------   -------
    .\
       main_swipe.oer4f                4809     12        265032 
       data_path.oer4f                 5093     0         65536  
       mmw_cli.oer4f                   2808     0         0      
       config_hwa_util.oer4f           2513     0         0      
       HandCraftedclassifier.oer4f     2144     0         320    
       sensor_mgmt.oer4f               1088     0         24     
       rx_ch_bias_measure.oer4f        942      0         0      
       config_edma_util.oer4f          928      0         0      
       gesture_swipe.oer4f             804      0         2      
    +--+-------------------------------+--------+---------+---------+
       Total:                          21129    12        330914 
                                                                 
    D:\mmwave_industrial_toolbox_2_5_2\labs\gesture_swipe_14xx_mss\Debug\configPkg\package\cfg\
       mmw_per4f.oer4f                 2716     1794      41324  
    +--+-------------------------------+--------+---------+---------+
       Total:                          2716     1794      41324  
                                                                 
    D:/ti/mmwave_sdk_01_02_00_05/packages/ti/control/mmwave/lib/libmmwave_xwr14xx.aer4f
       mmwave_link.oer4f               2416     0         0      
       mmwave_fullcfg.oer4f            1874     0         0      
       mmwave.oer4f                    1036     0         212    
       mmwave_osal.oer4f               204      0         0      
       mmwave_listlib.oer4f            150      0         0      
       mmwave_xwr14xx.oer4f            142      0         0      
    +--+-------------------------------+--------+---------+---------+
       Total:                          5822     0         212    
                                                                 
    D:/ti/mmwave_sdk_01_02_00_05/packages/ti/control/mmwavelink/lib/libmmwavelink_xwr14xx.aer4f
       rl_driver.oer4f                 4050     120       1008   
       rl_sensor.oer4f                 1488     596       0      
       rl_device.oer4f                 436      0         0      
       rl_controller.oer4f             146      0         0      
    +--+-------------------------------+--------+---------+---------+
       Total:                          6120     716       1008   
                                                                 
    D:/ti/mmwave_sdk_01_02_00_05/packages/ti/drivers/adcbuf/lib/libadcbuf_xwr14xx.aer4f
       adcbuf_mmwave.oer4f             1592     20        0      
       ADCBuf.oer4f                    124      8         4      
       adcbuf_xwr1xxx.oer4f            0        16        24     
    +--+-------------------------------+--------+---------+---------+
       Total:                          1716     44        28     
                                                                 
    D:/ti/mmwave_sdk_01_02_00_05/packages/ti/drivers/crc/lib/libcrc_xwr14xx.aer4f
       crc.oer4f                       1272     0         0      
       crc_xwr14xx.oer4f               0        0         4      
    +--+-------------------------------+--------+---------+---------+
       Total:                          1272     0         4      
                                                                 
    D:/ti/mmwave_sdk_01_02_00_05/packages/ti/drivers/edma/lib/libedma_xwr14xx.aer4f
       edma.oer4f                      2912     8         636    
       edma_low_level.oer4f            878      0         4      
       edma_xwr1xxx.oer4f              0        28        0      
    +--+-------------------------------+--------+---------+---------+
       Total:                          3790     36        640    
                                                                 
    D:/ti/mmwave_sdk_01_02_00_05/packages/ti/drivers/esm/lib/libesm_xwr14xx.aer4f
       esm.oer4f                       456      0         112    
       esm_xwr1xxx.oer4f               0        0         12     
    +--+-------------------------------+--------+---------+---------+
       Total:                          456      0         124    
                                                                 
    D:/ti/mmwave_sdk_01_02_00_05/packages/ti/drivers/gpio/lib/libgpio_xwr14xx.aer4f
       gpio.oer4f                      1094     0         276    
       gpio_xwr14xx.oer4f              0        0         8      
    +--+-------------------------------+--------+---------+---------+
       Total:                          1094     0         284    
                                                                 
    D:/ti/mmwave_sdk_01_02_00_05/packages/ti/drivers/hwa/lib/libhwa_xwr14xx.aer4f
       hwa.oer4f                       3448     0         0      
       hwa_xwr14xx.oer4f               0        0         40     
    +--+-------------------------------+--------+---------+---------+
       Total:                          3448     0         40     
                                                                 
    D:/ti/mmwave_sdk_01_02_00_05/packages/ti/drivers/mailbox/lib/libmailbox_xwr14xx.aer4f
       mailbox.oer4f                   1546     20        72     
       mailbox_xwr14xx.oer4f           0        0         24     
    +--+-------------------------------+--------+---------+---------+
       Total:                          1546     20        96     
                                                                 
    D:/ti/mmwave_sdk_01_02_00_05/packages/ti/drivers/osal/lib/libosal_xwr14xx.aer4f
       HwiP_tirtos.oer4f               258      0         0      
       SemaphoreP_tirtos.oer4f         166      0         0      
       MemoryP_tirtos.oer4f            44       0         0      
       DebugP_tirtos.oer4f             28       0         0      
    +--+-------------------------------+--------+---------+---------+
       Total:                          496      0         0      
                                                                 
    D:/ti/mmwave_sdk_01_02_00_05/packages/ti/drivers/pinmux/lib/libpinmux_xwr14xx.aer4f
       pinmux.oer4f                    406      0         0      
       pinmux_xwr1xxx.oer4f            0        0         4      
    +--+-------------------------------+--------+---------+---------+
       Total:                          406      0         4      
                                                                 
    D:/ti/mmwave_sdk_01_02_00_05/packages/ti/drivers/soc/lib/libsoc_xwr14xx.aer4f
       soc_xwr14xx.oer4f               894      0         52     
       soc.oer4f                       474      0         0      
       soc_mpu.o                       182      0         0      
    +--+-------------------------------+--------+---------+---------+
       Total:                          1550     0         52     
                                                                 
    D:/ti/mmwave_sdk_01_02_00_05/packages/ti/drivers/uart/lib/libuart_xwr14xx.aer4f
       uartsci.oer4f                   2106     0         40     
       UART.oer4f                      186      40        4      
       uart_xwr14xx.oer4f              0        0         116    
       uartsci_nodma.oer4f             92       0         0      
    +--+-------------------------------+--------+---------+---------+
       Total:                          2384     40        160    
                                                                 
    D:/ti/mmwave_sdk_01_02_00_05/packages/ti/utils/cli/lib/libcli_xwr14xx.aer4f
       cli_mmwave.oer4f                3921     160       400    
       cli.oer4f                       824      4         416    
    +--+-------------------------------+--------+---------+---------+
       Total:                          4745     164       816    
                                                                 
    D:/ti/ti-cgt-arm_16.9.6.LTS/lib/rtsv7R4_T_le_v3D16_eabi.lib
       _printfi.obj                    4218     0         0      
       k_rem_pio2.obj                  1532     344       0      
       s_cos.obj                       1012     0         0      
       ull_div32.obj                   696      0         0      
       e_asin.obj                      676      0         0      
       strtod.obj                      484      152       0      
       e_log10.obj                     512      0         0      
       fopen.obj                       456      0         4      
       defs.obj                        0        0         416    
       trgmsg.obj                      108      0         288    
       ctype.obj                       0        257       0      
       write.obj                       40       0         200    
       s_scalbn.obj                    236      0         0      
       s_floor.obj                     224      0         0      
       s_ceil.obj                      220      0         0      
       setvbuf.obj                     220      0         0      
       fflush.obj                      216      0         0      
       open.obj                        188      0         4      
       k_cos.obj                       184      0         0      
       memcpy_t2.obj                   176      0         0      
       _io_perm.obj                    174      0         0      
       fputc.obj                       164      0         0      
       k_sin.obj                       164      0         0      
       fclose.obj                      152      0         0      
       memset_t2.obj                   142      0         0      
       vsnprintf.obj                   136      0         0      
       getdevice.obj                   116      0         0      
       s_frexp.obj                     116      0         0      
       copy_decompress_lzss.obj        108      0         0      
       hostlseek.obj                   104      0         0      
       hostrename.obj                  104      0         0      
       fseek.obj                       100      0         0      
       hostopen.obj                    92       0         8      
       sprintf.obj                     100      0         0      
       exit.obj                        80       0         12     
       hostread.obj                    92       0         0      
       close.obj                       88       0         0      
       cpy_tbl.obj                     88       0         0      
       hostwrite.obj                   88       0         0      
       ltoa.obj                        84       0         0      
       atoi.obj                        80       0         0      
       u_div32.obj                     80       0         0      
       hostclose.obj                   68       0         0      
       hostunlink.obj                  68       0         0      
       strtok.obj                      64       0         4      
       strncpy.obj                     54       0         0      
       e_sqrt.obj                      44       0         0      
       unlink.obj                      44       0         0      
       strspn.obj                      42       0         0      
       lseek.obj                       40       0         0      
       memcmp.obj                      38       0         0      
       strcspn.obj                     34       0         0      
       _lock.obj                       20       0         8      
       memccpy.obj                     28       0         0      
       s_copysign.obj                  26       0         0      
       args_main.obj                   24       0         0      
       strcmp.obj                      24       0         0      
       strchr.obj                      22       0         0      
       strlen.obj                      22       0         0      
       strcpy.obj                      20       0         0      
       copy_decompress_none.obj        14       0         0      
       copy_zero_init.obj              12       0         0      
       errno.obj                       0        0         4      
       stkdepth_vars.obj               0        0         4      
       i_div0.obj                      2        0         0      
    +--+-------------------------------+--------+---------+---------+
       Total:                          14560    753       952    
                                                                 
    D:\mmwave_industrial_toolbox_2_5_2\labs\gesture_swipe_14xx_mss\src\sysbios\sysbios.aer4f
       BIOS.obj                        22904    0         0      
       exc_Exception_asm.obj           308      0         0      
       vim_Hwi_asm.obj                 208      0         0      
       arm_TaskSupport_asm.obj         176      0         0      
       vim_Hwi_asm_switch.obj          152      0         0      
       a15_TimestampProvider_asm.obj   52       0         0      
       tms570_Core_asm.obj             12       0         0      
    +--+-------------------------------+--------+---------+---------+
       Total:                          23812    0         0      
                                                                 
    D:\ti\bios_6_53_02_00\packages\ti\targets\arm\rtsarm\lib\auto_init.aer4f
       auto_init.oer4f                 236      0         0      
    +--+-------------------------------+--------+---------+---------+
       Total:                          236      0         0      
                                                                 
    D:\ti\bios_6_53_02_00\packages\ti\targets\arm\rtsarm\lib\boot.aer4f
       boot.oer4f                      116      0         0      
    +--+-------------------------------+--------+---------+---------+
       Total:                          116      0         0      
                                                                 
    D:\ti\bios_6_53_02_00\packages\ti\targets\arm\rtsarm\lib\ti.targets.arm.rtsarm.aer4f
       System.oer4f                    1993     0         0      
       Text.oer4f                      904      0         0      
       Error.oer4f                     864      0         0      
       Core-mem.oer4f                  532      0         0      
       Startup.oer4f                   500      0         0      
       Core-smem.oer4f                 324      0         0      
       Memory.oer4f                    292      0         0      
       Assert.oer4f                    132      0         0      
       Core-params.oer4f               100      0         0      
       Core-label.oer4f                92       0         0      
       SysStd.oer4f                    76       0         0      
       Registry.oer4f                  52       0         0      
       Gate.oer4f                      36       0         0      
    +--+-------------------------------+--------+---------+---------+
       Total:                          5897     0         0      
                                                                 
       Stack:                          0        0         1200   
       Linker Generated:               0        944       0      
    +--+-------------------------------+--------+---------+---------+
       Grand Total:                    103311   4523      377858 


LINKER GENERATED COPY TABLES

__TI_cinit_table @ 00019af0 records: 4, size/record: 8, table size: 32
	.data: load addr=00019760, load size=0000036c bytes, run addr=08009cc0, run size=00001a96 bytes, compression=lzss
	.bss: load addr=00019ad8, load size=00000008 bytes, run addr=08008000, run size=00001cbc bytes, compression=zero_init
	.myFiqStack: load addr=00019ae0, load size=00000008 bytes, run addr=0800b758, run size=00000800 bytes, compression=zero_init
	systemHeap: load addr=00019ae8, load size=00000008 bytes, run addr=08000000, run size=00008000 bytes, compression=zero_init


LINKER GENERATED HANDLER TABLE

__TI_handler_table @ 00019acc records: 3, size/record: 4, table size: 12
	index: 0, handler: __TI_zero_init
	index: 1, handler: __TI_decompress_lzss
	index: 2, handler: __TI_decompress_none

VENEERS

callee name               veneer name
   callee addr  veneer addr  call addr  call info
--------------  -----------  ---------  ----------------
ti_sysbios_family_arm_v7r_vim_Hwi_enableInterrupt__E  $Ven$TA$L$PI$$ti_sysbios_family_arm_v7r_vim_Hwi_enableInterrupt__E
   00017260     00018908     000077bc   libosal_xwr14xx.aer4f : HwiP_tirtos.oer4f (.text:HwiP_enableInterrupt)
putchar                   $Ven$AT$L$PI$$putchar
   000125e3     00018914     000188d8   ti.targets.arm.rtsarm.aer4f : SysStd.oer4f (.text:xdc_runtime_SysStd_putch__E)
ti_sysbios_family_arm_v7r_vim_Hwi_disableInterrupt__E  $Ven$TA$L$PI$$ti_sysbios_family_arm_v7r_vim_Hwi_disableInterrupt__E
   00017230     00018924     0000729c   libosal_xwr14xx.aer4f : HwiP_tirtos.oer4f (.text:HwiP_disableInterrupt)
ti_sysbios_knl_Semaphore_post__E  $Ven$TA$L$PI$$ti_sysbios_knl_Semaphore_post__E
   00009320     00018934     0000de0a   data_path.oer4f (.text:MmwDemo_dataPathHwaDoneIsrCallback)
xdc_runtime_Memory_free__E  $Ven$TA$L$PI$$xdc_runtime_Memory_free__E
   00018664     0001893c     00010bea   libosal_xwr14xx.aer4f : MemoryP_tirtos.oer4f (.text:MemoryP_ctrlFree)
fflush                    $Ven$AT$L$PI$$fflush
   0000ff19     00018944     0000d338   ti.targets.arm.rtsarm.aer4f : SysStd.oer4f (.text:xdc_runtime_SysStd_exit__E)
memcpy                    $Ven$AT$L$PI$$memcpy
   000122f5     00018950     00018728   sysbios.aer4f : BIOS.obj (.text:ti_sysbios_BIOS_getCpuFreq__E)
xdc_runtime_Assert_raise__I  $Ven$TA$L$PI$$xdc_runtime_Assert_raise__I
   00013974     0001895c     0001852c   libosal_xwr14xx.aer4f : DebugP_tirtos.oer4f (.text:_DebugP_assert)
ti_sysbios_knl_Event_post__E  $Ven$TA$L$PI$$ti_sysbios_knl_Event_post__E
   00008540     00018964     00018046   sensor_mgmt.oer4f (.text:MmwDemo_notifySensorStart)
                             000186e8   sensor_mgmt.oer4f (.text:MmwDemo_notifySensorStop)
memset                    $Ven$AT$L$PI$$memset
   000139f9     0001896c     00017984   ti.targets.arm.rtsarm.aer4f : Error.oer4f (.text:xdc_runtime_Error_init__E)
copy_in                   $Ven$AT$L$PI$$copy_in
   00015e21     00018980     0000eb04   auto_init.aer4f : auto_init.oer4f (.text)

[11 trampolines]
[12 trampoline calls]


FAR CALL TRAMPOLINES

callee name               trampoline name
   callee addr  tramp addr   call addr  call info
--------------  -----------  ---------  ----------------
rlDriverDeInit            $Tramp$TT$L$PI$$rlDriverDeInit
   000127bd     510209f0     510209c4   libmmwavelink_xwr14xx.aer4f : rl_device.oer4f (.text:rlDevicePowerOn)
rlDriverInit              $Tramp$TT$L$PI$$rlDriverInit
   0000e31d     510209f8     510209a2   libmmwavelink_xwr14xx.aer4f : rl_device.oer4f (.text:rlDevicePowerOn)
rlDevicePowerOff          $Tramp$TT$L$PI$$rlDevicePowerOff
   00014941     51020a00     51020982   libmmwavelink_xwr14xx.aer4f : rl_device.oer4f (.text:rlDevicePowerOn)
rlDriverGetHandle         $Tramp$TT$L$PI$$rlDriverGetHandle
   00012979     51020a08     51020972   libmmwavelink_xwr14xx.aer4f : rl_device.oer4f (.text:rlDevicePowerOn)
MemoryP_ctrlFree          $Tramp$TT$L$PI$$MemoryP_ctrlFree
   00010be5     51020a10     51020946   libcrc_xwr14xx.aer4f : crc.oer4f (.text:CRC_open)
CRC_getCRCTypeBitValue    $Tramp$TT$L$PI$$CRC_getCRCTypeBitValue
   00017075     51020a18     5102084a   libcrc_xwr14xx.aer4f : crc.oer4f (.text:CRC_open)
                             510208e2                        : crc.oer4f (.text:CRC_open)
CSL_FINSR                 $Tramp$TT$L$PI$$CSL_FINSR
   0001671b     51020a20     51020840   libcrc_xwr14xx.aer4f : crc.oer4f (.text:CRC_open)
                             51020858                        : crc.oer4f (.text:CRC_open)
                             51020872                        : crc.oer4f (.text:CRC_open)
                             5102088c                        : crc.oer4f (.text:CRC_open)
                             510208d8                        : crc.oer4f (.text:CRC_open)
                             510208f0                        : crc.oer4f (.text:CRC_open)
                             5102090a                        : crc.oer4f (.text:CRC_open)
                             51020924                        : crc.oer4f (.text:CRC_open)
                             51020936                        : crc.oer4f (.text:CRC_open)
CRC_getCRCDataSelectBitValue  $Tramp$TT$L$PI$$CRC_getCRCDataSelectBitValue
   00017041     51020a28     51020832   libcrc_xwr14xx.aer4f : crc.oer4f (.text:CRC_open)
                             510208ca                        : crc.oer4f (.text:CRC_open)
MMWave_initMMWaveLink     $Tramp$TT$L$PI$$MMWave_initMMWaveLink
   0000be55     51020a30     5102073e   libmmwave_xwr14xx.aer4f : mmwave_link.oer4f (.text:MMWave_initLink)
MMWave_listAdd            $Tramp$TT$L$PI$$MMWave_listAdd
   000181bf     51020a38     510206e0   libmmwave_xwr14xx.aer4f : mmwave_link.oer4f (.text:MMWave_initLink)
MMWave_decodeErrorLevel   $Tramp$TT$L$PI$$MMWave_decodeErrorLevel
   0001884f     51020a40     5102067a   libmmwave_xwr14xx.aer4f : mmwave.oer4f (.text:MMWave_init)
MMWave_encodeError        $Tramp$TT$L$PI$$MMWave_encodeError
   000181a5     51020a48     51020672   libmmwave_xwr14xx.aer4f : mmwave.oer4f (.text:MMWave_init)
                             51020730                           : mmwave_link.oer4f (.text:MMWave_initLink)
MMWave_deviceInitFxn      $Tramp$TT$L$PI$$MMWave_deviceInitFxn
   0000ad6d     51020a50     51020660   libmmwave_xwr14xx.aer4f : mmwave.oer4f (.text:MMWave_init)
memcpy                    $Tramp$TT$L$PI$$memcpy
   000122f5     51020a58     51020610   libmmwave_xwr14xx.aer4f : mmwave.oer4f (.text:MMWave_init)
                             51020996   libmmwavelink_xwr14xx.aer4f : rl_device.oer4f (.text:rlDevicePowerOn)
HwiP_create               $Tramp$TT$L$PI$$HwiP_create
   00013781     51020a60     51020598   libuart_xwr14xx.aer4f : uartsci.oer4f (.text:UartSci_open)
HwiP_Params_init          $Tramp$TT$L$PI$$HwiP_Params_init
   000184ad     51020a68     51020586   libuart_xwr14xx.aer4f : uartsci.oer4f (.text:UartSci_open)
CSL_FINSR                 $Tramp$TT$L$PI$$CSL_FINSR
   0001688f     51020a70     510204a8   libuart_xwr14xx.aer4f : uartsci.oer4f (.text:UartSci_open)
                             510204da                         : uartsci.oer4f (.text:UartSci_open)
                             510204f0                         : uartsci.oer4f (.text:UartSci_open)
                             51020506                         : uartsci.oer4f (.text:UartSci_open)
                             510205a8                         : uartsci.oer4f (.text:UartSci_open)
SemaphoreP_create         $Tramp$TT$L$PI$$SemaphoreP_create
   00014ad5     51020a78     51020458   libuart_xwr14xx.aer4f : uartsci.oer4f (.text:UartSci_open)
                             5102046c                         : uartsci.oer4f (.text:UartSci_open)
                             5102062c   libmmwave_xwr14xx.aer4f : mmwave.oer4f (.text:MMWave_init)
                             51020648                           : mmwave.oer4f (.text:MMWave_init)
SemaphoreP_Params_init    $Tramp$TT$L$PI$$SemaphoreP_Params_init
   0000ff99     51020a80     51020448   libuart_xwr14xx.aer4f : uartsci.oer4f (.text:UartSci_open)
                             51020460                         : uartsci.oer4f (.text:UartSci_open)
                             5102061c   libmmwave_xwr14xx.aer4f : mmwave.oer4f (.text:MMWave_init)
                             51020636                           : mmwave.oer4f (.text:MMWave_init)
MemoryP_ctrlAlloc         $Tramp$TT$L$PI$$MemoryP_ctrlAlloc
   0001868b     51020a88     51020408   libuart_xwr14xx.aer4f : uartsci.oer4f (.text:UartSci_open)
                             510207c6   libcrc_xwr14xx.aer4f : crc.oer4f (.text:CRC_open)
_MmwDemo_debugAssert      $Tramp$TT$L$PI$$_MmwDemo_debugAssert
   00017b85     51020a90     5102039c   data_path.oer4f (.text:MmwDemo_edmaInit)
EDMA_init                 $Tramp$TT$L$PI$$EDMA_init
   0000cfb5     51020a98     510202f4   data_path.oer4f (.text:MmwDemo_edmaInit)
EDMA_getNumInstances      $Tramp$TT$L$PI$$EDMA_getNumInstances
   00005f5d     51020aa0     510202e8   data_path.oer4f (.text:MmwDemo_edmaInit)
HwiP_restore              $Tramp$TT$L$PI$$HwiP_restore
   00018349     51020aa8     510202c8   libmailbox_xwr14xx.aer4f : mailbox.oer4f (.text:Mailbox_init)
HwiP_disable              $Tramp$TT$L$PI$$HwiP_disable
   0000a299     51020ab0     51020276   libmailbox_xwr14xx.aer4f : mailbox.oer4f (.text:Mailbox_init)
_DebugP_assert            $Tramp$TT$L$PI$$_DebugP_assert
   00018525     51020ab8     510201f8   main_swipe.oer4f (.text:MmwDemo_initTask)
                             510203a8   data_path.oer4f (.text:MmwDemo_edmaInit)
                             510204ca   libuart_xwr14xx.aer4f : uartsci.oer4f (.text:UartSci_open)
                             5102053e                         : uartsci.oer4f (.text:UartSci_open)
ti_sysbios_family_arm_v7a_Pmu_getCount__E  $Tramp$AA$L$PI$$ti_sysbios_family_arm_v7a_Pmu_getCount__E
   0000f310     51020ac0     5102019c   main_swipe.oer4f (.text:MmwDemo_initTask)
                             510201a4   main_swipe.oer4f (.text:MmwDemo_initTask)
ti_sysbios_knl_Semaphore_create  $Tramp$AA$L$PI$$ti_sysbios_knl_Semaphore_create
   000157d4     51020ac8     51020174   main_swipe.oer4f (.text:MmwDemo_initTask)
                             51020334   data_path.oer4f (.text:MmwDemo_edmaInit)
                             51020350   data_path.oer4f (.text:MmwDemo_edmaInit)
                             5102036e   data_path.oer4f (.text:MmwDemo_edmaInit)
                             5102038a   data_path.oer4f (.text:MmwDemo_edmaInit)
ti_sysbios_knl_Semaphore_Params__init__S  $Tramp$AA$L$PI$$ti_sysbios_knl_Semaphore_Params__init__S
   000187d0     51020ad0     51020166   main_swipe.oer4f (.text:MmwDemo_initTask)
                             51020324   data_path.oer4f (.text:MmwDemo_edmaInit)
                             51020342   data_path.oer4f (.text:MmwDemo_edmaInit)
                             51020360   data_path.oer4f (.text:MmwDemo_edmaInit)
                             5102037c   data_path.oer4f (.text:MmwDemo_edmaInit)
CLI_write                 $Tramp$TT$L$PI$$CLI_write
   00016035     51020ad8     51020154   main_swipe.oer4f (.text:MmwDemo_initTask)
                             510201b4   main_swipe.oer4f (.text:MmwDemo_initTask)
                             510201c6   main_swipe.oer4f (.text:MmwDemo_initTask)
                             510201d8   main_swipe.oer4f (.text:MmwDemo_initTask)
                             510201ec   main_swipe.oer4f (.text:MmwDemo_initTask)
SOC_registerSysIntListener  $Tramp$TT$L$PI$$SOC_registerSysIntListener
   00011e05     51020ae0     51020146   main_swipe.oer4f (.text:MmwDemo_initTask)
MmwDemo_sensorMgmtInit    $Tramp$TT$L$PI$$MmwDemo_sensorMgmtInit
   000106b5     51020ae8     5102012a   main_swipe.oer4f (.text:MmwDemo_initTask)
MmwDemo_CLIInit           $Tramp$TT$L$PI$$MmwDemo_CLIInit
   00006545     51020af0     51020126   main_swipe.oer4f (.text:MmwDemo_initTask)
ti_sysbios_knl_Task_create  $Tramp$AA$L$PI$$ti_sysbios_knl_Task_create
   00013678     51020af8     51020122   main_swipe.oer4f (.text:MmwDemo_initTask)
                             51020196   main_swipe.oer4f (.text:MmwDemo_initTask)
ti_sysbios_knl_Task_Params__init__S  $Tramp$AA$L$PI$$ti_sysbios_knl_Task_Params__init__S
   000187e0     51020b00     5102010c   main_swipe.oer4f (.text:MmwDemo_initTask)
                             51020184   main_swipe.oer4f (.text:MmwDemo_initTask)
ti_sysbios_family_arm_v7a_Pmu_startCounter__E  $Tramp$AA$L$PI$$ti_sysbios_family_arm_v7a_Pmu_startCounter__E
   0000f3f0     51020b08     51020100   main_swipe.oer4f (.text:MmwDemo_initTask)
ti_sysbios_family_arm_v7a_Pmu_configureCounter__E  $Tramp$AA$L$PI$$ti_sysbios_family_arm_v7a_Pmu_configureCounter__E
   0000c9d0     51020b10     510200fa   main_swipe.oer4f (.text:MmwDemo_initTask)
MmwDemo_dataPathOpen      $Tramp$TT$L$PI$$MmwDemo_dataPathOpen
   00017ea9     51020b18     510200f0   main_swipe.oer4f (.text:MmwDemo_initTask)
MMWave_sync               $Tramp$TT$L$PI$$MMWave_sync
   00015a19     51020b20     510200e6   main_swipe.oer4f (.text:MmwDemo_initTask)
memset                    $Tramp$TT$L$PI$$memset
   000139f9     51020b28     510200b4   main_swipe.oer4f (.text:MmwDemo_initTask)
                             510202a0   libmailbox_xwr14xx.aer4f : mailbox.oer4f (.text:Mailbox_init)
                             510202ac                            : mailbox.oer4f (.text:Mailbox_init)
                             5102030c   data_path.oer4f (.text:MmwDemo_edmaInit)
                             51020318   data_path.oer4f (.text:MmwDemo_edmaInit)
                             51020416   libuart_xwr14xx.aer4f : uartsci.oer4f (.text:UartSci_open)
                             51020604   libmmwave_xwr14xx.aer4f : mmwave.oer4f (.text:MMWave_init)
                             510206d8                           : mmwave_link.oer4f (.text:MMWave_initLink)
                             510207d4   libcrc_xwr14xx.aer4f : crc.oer4f (.text:CRC_open)
UART_open                 $Tramp$TT$L$PI$$UART_open
   00016e2d     51020b30     51020066   main_swipe.oer4f (.text:MmwDemo_initTask)
                             510200a0   main_swipe.oer4f (.text:MmwDemo_initTask)
UART_Params_init          $Tramp$TT$L$PI$$UART_Params_init
   0001826d     51020b38     5102004e   main_swipe.oer4f (.text:MmwDemo_initTask)
                             5102007c   main_swipe.oer4f (.text:MmwDemo_initTask)
Pinmux_Set_FuncSel        $Tramp$TT$L$PI$$Pinmux_Set_FuncSel
   000143d1     51020b40     51020036   main_swipe.oer4f (.text:MmwDemo_initTask)
                             51020048   main_swipe.oer4f (.text:MmwDemo_initTask)
Pinmux_Set_OverrideCtrl   $Tramp$TT$L$PI$$Pinmux_Set_OverrideCtrl
   000116f5     51020b48     5102002e   main_swipe.oer4f (.text:MmwDemo_initTask)
                             51020040   main_swipe.oer4f (.text:MmwDemo_initTask)
MmwDemo_dataPathInit      $Tramp$TT$L$PI$$MmwDemo_dataPathInit
   00017731     51020b50     51020024   main_swipe.oer4f (.text:MmwDemo_initTask)
GPIO_init                 $Tramp$TT$L$PI$$GPIO_init
   00012d7d     51020b58     51020018   main_swipe.oer4f (.text:MmwDemo_initTask)
UART_init                 $Tramp$TT$L$PI$$UART_init
   00016c0d     51020b60     5102000e   main_swipe.oer4f (.text:MmwDemo_initTask)
xdc_runtime_System_printf__E  $Tramp$AA$L$PI$$xdc_runtime_System_printf__E
   000179e0     51020b68     5102000a   main_swipe.oer4f (.text:MmwDemo_initTask)
MmwDemo_edmaInit          $Tramp$TT$L$PI$$MmwDemo_edmaInit
   510202e1     00018978     0001774e   main_swipe.oer4f (.text:MmwDemo_dataPathInit)
rlDevicePowerOn           $Tramp$TT$L$PI$$rlDevicePowerOn
   51020965     0001898c     0000befe   libmmwave_xwr14xx.aer4f : mmwave_link.oer4f (.text:MMWave_initMMWaveLink)

[50 trampolines]
[103 trampoline calls]


GLOBAL SYMBOLS: SORTED ALPHABETICALLY BY Name 

address   name                                                                 
-------   ----                                                                 
00016b9d  ADCBUF_MMWave_close                                                  
00004621  ADCBUF_MMWave_control                                                
00011cc5  ADCBUF_MMWave_getChanBufAddr                                         
0000117b  ADCBUF_MMWave_init                                                   
0000f841  ADCBUF_MMWave_open                                                   
00018841  ADCBuf_Params_init                                                   
0800b5b0  ADCBuf_config                                                        
0000d577  ADCBuf_control                                                       
00019464  ADCBuf_defaultParams                                                 
0001710d  ADCBuf_init                                                          
00016d5d  ADCBuf_open                                                          
00015b59  C$$EXIT                                                              
000144db  C$$IO$$                                                              
00014cc9  CLI_MMWaveExtensionHandler                                           
00011455  CLI_MMWaveExtensionHelp                                              
00017de9  CLI_MMWaveExtensionInit                                              
000186c1  CLI_getMMWaveExtensionConfig                                         
0001845d  CLI_getMMWaveExtensionOpenConfig                                     
0000f14d  CLI_open                                                             
00016035  CLI_write                                                            
0000e41d  CRC_computeSignature                                                 
00015979  CRC_getSignature                                                     
000156d9  CRC_getTransactionId                                                 
51020759  CRC_initConfigParams                                                 
5102076d  CRC_open                                                             
0800a808  D2H_SYNC_PATTERN                                                     
00005255  EDMA3ChannelToParamMap                                               
000024bb  EDMA3ClrCCErr                                                        
00017bd1  EDMA3ClrEvt                                                          
00017bf5  EDMA3ClrIntr                                                         
00016bd5  EDMA3ClrMissEvt                                                      
00017e09  EDMA3DisableDmaEvt                                                   
00017c19  EDMA3DisableEvtIntr                                                  
000181f5  EDMA3DisableQdmaEvt                                                  
000152ad  EDMA3EnableChInShadowReg                                             
00017c3d  EDMA3EnableDmaEvt                                                    
00017c61  EDMA3EnableEvtIntr                                                   
0001820d  EDMA3EnableQdmaEvt                                                   
000176a9  EDMA3ErrIntrHighStatusGet                                            
00017899  EDMA3GetCCErrStatus                                                  
00017f29  EDMA3GetErrIntrStatus                                                
00018471  EDMA3GetIntrStatus                                                   
000114fd  EDMA3Init                                                            
00018485  EDMA3IntrStatusHighGet                                               
000159c9  EDMA3MapChToEvtQ                                                     
00018499  EDMA3MapQdmaChToPaRAM                                                
00017e29  EDMA3QdmaClrMissEvt                                                  
000180f9  EDMA3QdmaGetErrIntrStatus                                            
00017c85  EDMA3SetEvt                                                          
0001818b  EDMA3SetPaRAM                                                        
00018679  EDMA3SetQdmaTrigWord                                                 
0000c751  EDMA_configChannel                                                   
0000f919  EDMA_configErrorMonitoring                                           
00013bd5  EDMA_configParamSet                                                  
00015cf1  EDMA_disableChannel                                                  
00015d3d  EDMA_enableChannel                                                   
00005f5d  EDMA_getNumInstances                                                 
0000cfb5  EDMA_init                                                            
000164dd  EDMA_linkParamSets                                                   
0000b065  EDMA_open                                                            
00010ed5  EDMA_startTransfer                                                   
000055d5  EDMAsetRegion                                                        
0000df19  EDMAutil_configHwaContiguous                                         
0000f765  EDMAutil_configHwaOneHotSignature                                    
0000d45d  EDMAutil_configHwaTranspose                                          
00015305  ESM_highpriority_FIQ                                                 
000118ed  ESM_init                                                             
00017e49  ESM_lowpriority_IRQ                                                  
000112fd  ESM_processInterrupt                                                 
00014221  GPIO_enableInt                                                       
00012d7d  GPIO_init                                                            
00014d29  GPIO_setCallback                                                     
0000b1d5  GPIO_setConfig                                                       
000109b1  GPIO_write                                                           
00013039  Gesture_angleEst                                                     
00007531  Gesture_findNumDetections                                            
0800a810  H2D_CNYS_PATTERN                                                     
0800a80c  H2D_SYNC_PATTERN                                                     
000162b9  HOSTclose                                                            
000147a1  HOSTlseek                                                            
00015081  HOSTopen                                                             
000150dd  HOSTread                                                             
00014809  HOSTrename                                                           
000162fd  HOSTunlink                                                           
00015515  HOSTwrite                                                            
00008d59  HWA_configCommon                                                     
00001f2d  HWA_configParamSet                                                   
00012725  HWA_configRam                                                        
000168cd  HWA_enable                                                           
000160c5  HWA_enableDoneInterrupt                                              
00010835  HWA_enableParamSetInterrupt                                          
00015925  HWA_getDMAconfig                                                     
00003da7  HWA_init                                                             
0000a75d  HWA_open                                                             
00016459  HWA_reset                                                            
00016ab1  HWA_setDMA2ACCManualTrig                                             
0000ecd1  HWAutil_configAngleEstAzimuth                                        
00008329  HWAutil_configAngleEstAzimuthElevation                               
00003901  HWAutil_configDopplerFFT                                             
00008755  HWAutil_configRangeFFT                                               
0000117d  Handmadeclassifier_prediction                                        
000184ad  HwiP_Params_init                                                     
00013781  HwiP_create                                                          
00016aed  HwiP_delete                                                          
0000a299  HwiP_disable                                                         
0000729d  HwiP_disableInterrupt                                                
000077bd  HwiP_enableInterrupt                                                 
00018349  HwiP_restore                                                         
00011991  MMWave_addBpmChirp                                                   
0001006d  MMWave_addChirp                                                      
0001103d  MMWave_addProfile                                                    
00013c49  MMWave_config                                                        
00010135  MMWave_configBPM                                                     
00012085  MMWave_configLink                                                    
0001651d  MMWave_decodeError                                                   
0001884f  MMWave_decodeErrorLevel                                              
00014d89  MMWave_deviceCfgAsyncEvent                                           
00008b5d  MMWave_deviceCfgFxn                                                  
0000853f  MMWave_deviceEventFxn                                                
0000a5cd  MMWave_deviceExecuteFxn                                              
0000cb09  MMWave_deviceGetDeviceInfo                                           
0000ad6d  MMWave_deviceInitFxn                                                 
0000bcfd  MMWave_deviceOpenFxn                                                 
0000c4cd  MMWave_deviceStartFxn                                                
0000e80d  MMWave_deviceStopFxn                                                 
0000f30d  MMWave_deviceSyncFxn                                                 
000181a5  MMWave_encodeError                                                   
0001535d  MMWave_execute                                                       
0001649b  MMWave_executeLink                                                   
000101fd  MMWave_flushCfg                                                      
0001164d  MMWave_getBpmChirpHandle                                             
0001242d  MMWave_getChirpCfg                                                   
000102c5  MMWave_getChirpHandle                                                
000132e1  MMWave_getNumBpmChirp                                                
00013ae5  MMWave_getNumChirps                                                  
000130c1  MMWave_getProfileCfg                                                 
00012121  MMWave_getProfileHandle                                              
510205e5  MMWave_init                                                          
510206c1  MMWave_initLink                                                      
000181bf  MMWave_listAdd                                                       
00017e69  MMWave_listCat                                                       
0001458d  MMWave_listGetHead                                                   
0001556d  MMWave_listGetNext                                                   
00018017  MMWave_listRemove                                                    
0001713d  MMWave_listRemoveNode                                                
00013b5d  MMWave_open                                                          
0000e11d  MMWave_openLink                                                      
00017411  MMWave_osalMutexCreate                                               
000184e9  MMWave_osalMutexDelete                                               
00018225  MMWave_osalMutexLock                                                 
00005c55  MMWave_osalMutexUnlock                                               
0001743f  MMWave_osalSemCreate                                                 
000184fd  MMWave_osalSemDelete                                                 
00009315  MMWave_osalSemSignal                                                 
0001823d  MMWave_osalSemWait                                                   
00011a35  MMWave_start                                                         
0000e21d  MMWave_startLink                                                     
00014fc9  MMWave_stop                                                          
000142f9  MMWave_stopLink                                                      
00015a19  MMWave_sync                                                          
00017ccd  Mailbox_Config_init                                                  
00012a15  Mailbox_close                                                        
000193f4  Mailbox_defaultCfg                                                   
51020271  Mailbox_init                                                         
0000b79d  Mailbox_open                                                         
0000f4d1  Mailbox_read                                                         
00014a71  Mailbox_readFlush                                                    
0000dd01  Mailbox_write                                                        
00016985  Mailbox_writeReset                                                   
0001868b  MemoryP_ctrlAlloc                                                    
00010be5  MemoryP_ctrlFree                                                     
0000c88d  MmwDemo_ADCBufConfig                                                 
00014365  MmwDemo_ADCBufOpen                                                   
00006545  MmwDemo_CLIInit                                                      
0001716d  MmwDemo_EDMA_errorCallbackFxn                                        
00015fe9  MmwDemo_EDMA_transferCompletionCallbackFxn                           
000173e1  MmwDemo_EDMA_transferControllerErrorCallbackFxn                      
0000bba9  MmwDemo_config1D_EDMA                                                
0000e519  MmwDemo_config1D_HWA                                                 
00003da9  MmwDemo_config2D_EDMA                                                
0000e615  MmwDemo_config2D_HWA                                                 
0000dae5  MmwDemo_configAngleEstimation_HWA                                    
0000dbf5  MmwDemo_configCFAR_EDMA                                              
0000fac5  MmwDemo_dataPathCfgBuffers                                           
00011ad9  MmwDemo_dataPathConfig                                               
00007a41  MmwDemo_dataPathConfigCommon                                         
0000de09  MmwDemo_dataPathHwaDoneIsrCallback                                   
00017731  MmwDemo_dataPathInit                                                 
00017e89  MmwDemo_dataPathObjInit                                              
00017ea9  MmwDemo_dataPathOpen                                                 
00012b35  MmwDemo_dataPathStart                                                
00002f65  MmwDemo_dataPathTask                                                 
00013f75  MmwDemo_dataPathTrigger1D                                            
00015ca1  MmwDemo_dataPathTrigger2D                                            
00016cb9  MmwDemo_dataPathTriggerAngleEstimation                               
000148d9  MmwDemo_dataPathWait1D                                               
00014f69  MmwDemo_dataPathWait2D                                               
0001665d  MmwDemo_dataPathWaitAngleEstimation                                  
00007ed9  MmwDemo_dcRangeSignatureCompensation                                 
510202e1  MmwDemo_edmaInit                                                     
00012e95  MmwDemo_edmaOpen                                                     
0000b631  MmwDemo_eventCallbackFxn                                             
000185bd  MmwDemo_hwaInit                                                      
0001669d  MmwDemo_hwaOpen                                                      
51020001  MmwDemo_initTask                                                     
00010521  MmwDemo_measurementResultOutput                                      
00017da3  MmwDemo_memPoolAlloc                                                 
000183c9  MmwDemo_memPoolReset                                                 
00015025  MmwDemo_mmWaveCtrlTask                                               
00018035  MmwDemo_notifySensorStart                                            
000186e1  MmwDemo_notifySensorStop                                             
00004a4d  MmwDemo_parseProfileAndChirpConfig                                   
0001869d  MmwDemo_pow2roundup                                                  
00018419  MmwDemo_process2D                                                    
00010459  MmwDemo_quadFit                                                      
0000625d  MmwDemo_rangeBiasRxChPhaseMeasure                                    
000106b5  MmwDemo_sensorMgmtInit                                               
000185d5  MmwDemo_sleep                                                        
0001540d  MmwDemo_waitSensorStartComplete                                      
00015d89  MmwDemo_waitSensorStopComplete                                       
000143d1  Pinmux_Set_FuncSel                                                   
000116f5  Pinmux_Set_OverrideCtrl                                              
UNDEFED   SHT$$INIT_ARRAY$$Base                                                
UNDEFED   SHT$$INIT_ARRAY$$Limit                                               
000176dd  SOC_SystemISR                                                        
0800b4a4  SOC_TranslateAddr_LUT                                                
0000810d  SOC_deviceInit                                                       
00016df9  SOC_enableHWA                                                        
000186f1  SOC_getInAddr_LUTType                                                
00018701  SOC_getOutAddr_LUTType                                               
00013cbd  SOC_init                                                             
00011e05  SOC_registerSysIntListener                                           
00013149  SOC_translateAddress                                                 
000169c1  SOC_unhaltBSS                                                        
000174f1  SOC_waitBSSPowerUp                                                   
0000ff99  SemaphoreP_Params_init                                               
00014ad5  SemaphoreP_create                                                    
0001886b  SemaphoreP_delete                                                    
000186af  SemaphoreP_pend                                                      
00012c55  SemaphoreP_post                                                      
00012c55  SemaphoreP_postFromClock                                             
00012c55  SemaphoreP_postFromISR                                               
0001826d  UART_Params_init                                                     
0800b4c8  UART_config                                                          
00019168  UART_defaultParams                                                   
00016c0d  UART_init                                                            
00016e2d  UART_open                                                            
00014515  UART_read                                                            
00016f65  UART_write                                                           
00018575  UART_writePolling                                                    
000185d9  UartSci_noDMAClose                                                   
00017759  UartSci_noDMAInitiateRxDMA                                           
00017781  UartSci_noDMAInitiateTxDMA                                           
000185dd  UartSci_noDMAIsDMAEnabled                                            
000185f5  UartSci_noDMAOpen                                                    
00018525  _DebugP_assert                                                       
00040000  _L3ram_size                                                          
51020000  _L3ram_start                                                         
00017b85  _MmwDemo_debugAssert                                                 
00000000  __ASM__                                                              
0800987c  __CIOBUF_                                                            
00000073  __ISA__                                                              
00000085  __PLAT__                                                             
0800c408  __STACK_END                                                          
000004b0  __STACK_SIZE                                                         
000000a9  __TARG__                                                             
00019af0  __TI_CINIT_Base                                                      
00019b10  __TI_CINIT_Limit                                                     
00019acc  __TI_Handler_Table_Base                                              
00019ad8  __TI_Handler_Table_Limit                                             
0000eaf8  __TI_auto_init                                                       
000095cf  __TI_cleanup                                                         
0800b664  __TI_cleanup_ptr                                                     
000124c5  __TI_closefile                                                       
0001443d  __TI_decompress_lzss                                                 
00018879  __TI_decompress_none                                                 
0000fecd  __TI_doflush                                                         
0800b668  __TI_dtors_ptr                                                       
0800b66c  __TI_enable_exit_profile_output                                      
0800b634  __TI_ft_end                                                          
ffffffff  __TI_pprof_out_hndl                                                  
000008c5  __TI_printfi                                                         
ffffffff  __TI_prof_data_size                                                  
ffffffff  __TI_prof_data_start                                                 
000112b1  __TI_rd_ok                                                           
000144df  __TI_readmsg                                                         
00019760  __TI_static_base__                                                   
08009b84  __TI_tmpnams                                                         
000144a9  __TI_writemsg                                                        
0001124d  __TI_wrt_ok                                                          
0000a435  __TI_zero_init                                                       
000000cf  __TRDR__                                                             
00009f5f  __aeabi_idiv0                                                        
000139f1  __aeabi_memclr                                                       
000139f1  __aeabi_memclr4                                                      
000139f1  __aeabi_memclr8                                                      
000122f5  __aeabi_memcpy                                                       
000122f5  __aeabi_memcpy4                                                      
000122f5  __aeabi_memcpy8                                                      
000139f3  __aeabi_memset                                                       
000139f3  __aeabi_memset4                                                      
000139f3  __aeabi_memset8                                                      
0800b640  __aeabi_stderr                                                       
0800b638  __aeabi_stdin                                                        
0800b63c  __aeabi_stdout                                                       
00015ba8  __aeabi_uidiv                                                        
00015ba8  __aeabi_uidivmod                                                     
00006808  __aeabi_uldivmod                                                     
ffffffff  __binit__                                                            
ffffffff  __c_args__                                                           
00010d65  __kernel_cos                                                         
00001931  __kernel_rem_pio2                                                    
00011b7d  __kernel_sin                                                         
0800bf58  __stack                                                              
000182fd  _args_main                                                           
00013d30  _c_int00                                                             
00018d50  _ctypes_                                                             
0800b190  _device                                                              
0800af88  _ftable                                                              
0800b688  _lock                                                                
00010e8f  _mpuAreRegionsSeparate_                                              
00010e6f  _mpuDisableBackgroundRegion_                                         
00010e3b  _mpuDisable_                                                         
00010e59  _mpuEnableBackgroundRegion_                                          
00010e1d  _mpuEnable_                                                          
00010e85  _mpuGetNumberOfRegions_                                              
00010ea9  _mpuGetRegionBaseAddress_                                            
00010ec3  _mpuGetRegionPermission_                                             
00010eb9  _mpuGetRegionType_                                                   
00010e9d  _mpuGetRegion_                                                       
00010ea3  _mpuSetRegionBaseAddress_                                            
00010ecd  _mpuSetRegionSizeRegister_                                           
00010eaf  _mpuSetRegionTypeAndPermission_                                      
00010e97  _mpuSetRegion_                                                       
0001855b  _nop                                                                 
00018553  _register_lock                                                       
0001854d  _register_unlock                                                     
0800b208  _stream                                                              
0800b68c  _unlock                                                              
00015b5d  abort                                                                
08009e84  anglearr                                                             
00006d69  asin                                                                 
00006d69  asinl                                                                
00015b09  atoi                                                                 
ffffffff  binit                                                                
0000f5ad  ceil                                                                 
0000f5ad  ceill                                                                
000154bd  close                                                                
00015e21  copy_in                                                              
000181d9  copysign                                                             
000181d9  copysignl                                                            
00004e61  cos                                                                  
00004e61  cosl                                                                 
08009cdc  counter_delta                                                        
08009ce4  counter_forprediction                                                
08009cd8  counterend                                                           
08009cd4  counterstart                                                         
00018711  dbgDummyFunc                                                         
0800b750  dbgVolatile                                                          
08009320  edmaDbg                                                              
0800b714  errno                                                                
00015b65  exit                                                                 
0001252b  fclose                                                               
0000ff19  fflush                                                               
00013e8d  finddevice                                                           
0001806d  findmax                                                              
00018089  findmin                                                              
0000f22d  floor                                                                
0000f22d  floorl                                                               
00009625  fopen                                                                
0001255d  fputc                                                                
000177a8  free                                                                 
000095fb  freopen                                                              
00013f01  frexp                                                                
00013f01  frexpl                                                               
00014b39  fseek                                                                
00019408  gADCBufFxnTable                                                      
0001941c  gADCBufHwCfg                                                         
0800959c  gCLI                                                                 
0800aebc  gCLIMMWaveControlCfg                                                 
0800ae14  gCLIMMWaveExtensionTable                                             
0800adf8  gCLIMMWaveOpenCfg                                                    
0800b704  gCRCRegister                                                         
0800b670  gESMHwCfgAttrs                                                       
00019348  gEdmaHwAttrs                                                         
08009c24  gEsmMCB                                                              
0800b690  gGPIOHwAtrrib                                                        
0800999c  gGPIOMCB                                                             
08009cb4  gHWADriverPtr                                                        
0800b4ec  gHWAHwCfg                                                            
08009ab0  gMMWave_MCB                                                          
0800b2f4  gMailboxMCB                                                          
0800b5c8  gMailboxMssBssHwCfg                                                  
52030000  gMmwHwaMemBuf                                                        
51020000  gMmwL3                                                               
08009ce8  gMmwL3heap                                                           
08009f78  gMmwMCB                                                              
08009c94  gMmwSessionMgmtMCB                                                   
0800b70c  gPinmuxRegs                                                          
0800b624  gSOCHwAttrib                                                         
0800b47c  gUartSciFxnTable                                                     
0800b258  gUartSciHwCfg                                                        
08009cf4  gestureMetrics                                                       
00013ebb  getdevice                                                            
00016b27  getmaxidx_inarray                                                    
00016b61  getminidx_inarray                                                    
08009ed4  instenergyarr                                                        
0000ebe5  ldexp                                                                
0000ebe5  ldexpl                                                               
0000895d  log10                                                                
0000895d  log10l                                                               
000177d1  log2Approx                                                           
00017821  lseek                                                                
0001572d  ltoa                                                                 
0000e711  main                                                                 
0800b720  main_func_sp                                                         
00015628  malloc                                                               
08009cd0  maxIndices                                                           
000180a5  memccpy                                                              
00017b5f  memcmp                                                               
000122f5  memcpy                                                               
000139f9  memset                                                               
08009cc4  numRangeBinsXferred                                                  
08009f24  numdetectptsarr                                                      
0800982c  numdetectptspeak_idx                                                 
00010b29  open                                                                 
08009cac  parmbuf                                                              
08009cc0  pktCounter                                                           
08009ce0  prediction_result                                                    
0001255d  putc                                                                 
000125e3  putchar                                                              
08009de4  range_disparr                                                        
08009cc8  range_res                                                            
0800b708  regionId                                                             
000175a1  remove                                                               
00018539  rlAppendDummy                                                        
00016cf1  rlAppendSubBlock                                                     
00017a09  rlDeviceGetMmWaveLinkVersion                                         
0001751d  rlDeviceGetMssVersion                                                
0001829d  rlDeviceGetRfVersion                                                 
0001610d  rlDeviceGetVersion                                                   
00015a69  rlDeviceIdentifyCmdDir                                               
00014941  rlDevicePowerOff                                                     
51020965  rlDevicePowerOn                                                      
00013da5  rlDriverAsyncEventHandler                                            
000182b5  rlDriverCalCRC                                                       
00015253  rlDriverCalChkSum                                                    
0000a101  rlDriverCmdInvoke                                                    
0000d7ad  rlDriverCmdSendRetry                                                 
000177f9  rlDriverConstructInMsg                                               
000127bd  rlDriverDeInit                                                       
000135f9  rlDriverExecuteGetApi                                                
000146d1  rlDriverExecuteSetApi                                                
000182cd  rlDriverFillPayload                                                  
00012979  rlDriverGetHandle                                                    
0000aee5  rlDriverGetPlatformId                                                
00014739  rlDriverHostIrqHandler                                               
0000e31d  rlDriverInit                                                         
000182e5  rlDriverIsDeviceMapValid                                             
00012f21  rlDriverMsgCmdReply                                                  
0000cd69  rlDriverMsgRead                                                      
00012851  rlDriverMsgReadCmdCtx                                                
00015465  rlDriverMsgReadSpawnCtx                                              
00010cad  rlDriverMsgWrite                                                     
00016155  rlDriverOsiInit                                                      
00013e19  rlDriverProcRdMsg                                                    
0000e90d  rlDriverRdVerifyMsg                                                  
0000aa6d  rlDriverRxHdrRead                                                    
0001655d  rlDriverValidateHdr                                                  
00015ab9  rlDriverVerifyCRC                                                    
00011ea5  rlDriverWaitForResponse                                              
00017cf1  rlEnableContMode                                                     
000169fd  rlGetSubBlock                                                        
00018595  rlGetSubBlockId                                                      
0001859b  rlGetSubBlockLen                                                     
00017ee9  rlRfInit                                                             
00017a2f  rlRfInitCalibConfig                                                  
00017a55  rlRfRunTimeCalibConfig                                               
00017a7b  rlRfSetCalMonFreqLimitConfig                                         
00017d15  rlRfSetCalMonTimeUnitConfig                                          
00017aa1  rlRfSetDeviceCfg                                                     
0001719d  rlSensorStart                                                        
00017549  rlSensorStop                                                         
00017ac7  rlSetAdcOutConfig                                                    
0001179d  rlSetAdvFrameConfig                                                  
00017aed  rlSetBpmCommonConfig                                                 
00017b13  rlSetChannelConfig                                                   
0000fe01  rlSetChirpConfig                                                     
00017b39  rlSetContModeConfig                                                  
00010775  rlSetFrameConfig                                                     
00017d39  rlSetLowPowerModeConfig                                              
0000f9f1  rlSetMultiBpmChirpConfig                                             
0001119d  rlSetProfileConfig                                                   
0800a914  rl_rxMsg                                                             
0800a814  rl_txMsg                                                             
0000ebe5  scalbn                                                               
0000ebe5  scalbnl                                                              
0000f689  setvbuf                                                              
00014b9d  sprintf                                                              
00017575  sqrt                                                                 
00017575  sqrtl                                                                
0800978c  steepfallidxs                                                        
080097dc  steepriseidxs                                                        
0001842f  strchr                                                               
00018315  strcmp                                                               
00018561  strcpy                                                               
00017dc5  strcspn                                                              
00018445  strlen                                                               
00016d27  strncpy                                                              
00017707  strspn                                                               
00008f4d  strtod                                                               
0001659d  strtok                                                               
00008f4d  strtold                                                              
0800b510  ti_sysbios_BIOS_Module__state__V                                     
00017624  ti_sysbios_BIOS_RtsGateProxy_Handle__label__S                        
000185f8  ti_sysbios_BIOS_RtsGateProxy_enter__E                                
000185fc  ti_sysbios_BIOS_RtsGateProxy_leave__E                                
000188e0  ti_sysbios_BIOS_RtsGateProxy_query__E                                
000165dc  ti_sysbios_BIOS_atExitFunc__I                                        
000175cc  ti_sysbios_BIOS_errorRaiseHook__I                                    
00017f08  ti_sysbios_BIOS_exitFunc__I                                          
00018720  ti_sysbios_BIOS_getCpuFreq__E                                        
00018910  ti_sysbios_BIOS_linkedWithIncorrectBootLibrary__E                    
00018888  ti_sysbios_BIOS_nullFunc__I                                          
00016e60  ti_sysbios_BIOS_registerRTSLock__I                                   
00016e94  ti_sysbios_BIOS_removeRTSLock__I                                     
000171cc  ti_sysbios_BIOS_rtsLock__I                                           
00017870  ti_sysbios_BIOS_rtsUnlock__I                                         
00018330  ti_sysbios_BIOS_setThreadType__E                                     
00016c44  ti_sysbios_BIOS_startFunc__I                                         
00018350  ti_sysbios_BIOS_start__E                                             
000133e8  ti_sysbios_family_arm_TaskSupport_Module__startupDone__S             
000138f8  ti_sysbios_family_arm_TaskSupport_buildTaskStack                     
00018580  ti_sysbios_family_arm_TaskSupport_checkStack__E                      
00018730  ti_sysbios_family_arm_TaskSupport_getStackAlignment__E               
00018050  ti_sysbios_family_arm_TaskSupport_glue                               
00018ef4  ti_sysbios_family_arm_TaskSupport_stackAlignment__C                  
00015570  ti_sysbios_family_arm_TaskSupport_start__E                           
00018284  ti_sysbios_family_arm_TaskSupport_swap__E                            
0800b728  ti_sysbios_family_arm_a15_TimestampProvider_Module__state__V         
000185a0  ti_sysbios_family_arm_a15_TimestampProvider_Module_startup__E        
00017200  ti_sysbios_family_arm_a15_TimestampProvider_autoRefreshFxn__I        
000136f8  ti_sysbios_family_arm_a15_TimestampProvider_get32__E                 
00018720  ti_sysbios_family_arm_a15_TimestampProvider_getFreq__E               
00018740  ti_sysbios_family_arm_a15_TimestampProvider_getOverflowCCNT__I       
000180c0  ti_sysbios_family_arm_a15_TimestampProvider_initCCNT__I              
0001949c  ti_sysbios_family_arm_exc_Exception_E_dataAbort__C                   
000194a0  ti_sysbios_family_arm_exc_Exception_E_prefetchAbort__C               
000194a4  ti_sysbios_family_arm_exc_Exception_E_swi__C                         
000194a8  ti_sysbios_family_arm_exc_Exception_E_undefinedInstruction__C        
0800b752  ti_sysbios_family_arm_exc_Exception_Module_State_0_excActive__A      
0800b72c  ti_sysbios_family_arm_exc_Exception_Module_State_0_excContext__A     
0800b730  ti_sysbios_family_arm_exc_Exception_Module_State_0_excStackBuffers__A
08008000  ti_sysbios_family_arm_exc_Exception_Module_State_0_excStack_0__A     
0800b734  ti_sysbios_family_arm_exc_Exception_Module_State_0_excStack__A       
00018e52  ti_sysbios_family_arm_exc_Exception_Module__id__C                    
0800b610  ti_sysbios_family_arm_exc_Exception_Module__state__V                 
00018750  ti_sysbios_family_arm_exc_Exception_Module_startup__E                
00005c60  ti_sysbios_family_arm_exc_Exception_excDumpContext__I                
0000fb98  ti_sysbios_family_arm_exc_Exception_excHandlerAsm__I                 
0000fc00  ti_sysbios_family_arm_exc_Exception_excHandlerDataAsm__I             
000077c0  ti_sysbios_family_arm_exc_Exception_excHandler__I                    
000194ac  ti_sysbios_family_arm_exc_Exception_excHookFuncs__A                  
000194b0  ti_sysbios_family_arm_exc_Exception_excHookFuncs__C                  
00014c00  ti_sysbios_family_arm_exc_Exception_initCore0__I                     
000194b4  ti_sysbios_family_arm_v7a_Pmu_A_invalidCounterId__C                  
000194b8  ti_sysbios_family_arm_v7a_Pmu_Module__diagsEnabled__C                
000194bc  ti_sysbios_family_arm_v7a_Pmu_Module__diagsIncluded__C               
000194c0  ti_sysbios_family_arm_v7a_Pmu_Module__diagsMask__C                   
000193f2  ti_sysbios_family_arm_v7a_Pmu_Module__id__C                          
0800b67c  ti_sysbios_family_arm_v7a_Pmu_Module__state__V                       
000178a0  ti_sysbios_family_arm_v7a_Pmu_Module_startup__E                      
0000b344  ti_sysbios_family_arm_v7a_Pmu_configureCounterI__I                   
0000c9d0  ti_sysbios_family_arm_v7a_Pmu_configureCounter__E                    
00018760  ti_sysbios_family_arm_v7a_Pmu_disableInterruptI__E                   
00018770  ti_sysbios_family_arm_v7a_Pmu_enableInterruptI__E                    
0000c9c4  ti_sysbios_family_arm_v7a_Pmu_getCountI__E                           
0000f310  ti_sysbios_family_arm_v7a_Pmu_getCount__E                            
00015138  ti_sysbios_family_arm_v7a_Pmu_getEnabled__E                          
00018780  ti_sysbios_family_arm_v7a_Pmu_getNumCounters__E                      
00018368  ti_sysbios_family_arm_v7a_Pmu_initCounters__I                        
00018790  ti_sysbios_family_arm_v7a_Pmu_startCounterI__E                       
0000f3f0  ti_sysbios_family_arm_v7a_Pmu_startCounter__E                        
000187a0  ti_sysbios_family_arm_v7a_Pmu_stopCounterI__E                        
000194c4  ti_sysbios_family_arm_v7r_tms570_Core_E_mismatchedIds__C             
00019724  ti_sysbios_family_arm_v7r_tms570_Core_Module__id__C                  
00015140  ti_sysbios_family_arm_v7r_tms570_Core_Module_startup__E              
0000d204  ti_sysbios_family_arm_v7r_tms570_Core_getId__E                       
000194c8  ti_sysbios_family_arm_v7r_tms570_Core_id__C                          
000194cc  ti_sysbios_family_arm_v7r_vim_Hwi_A_badChannelId__C                  
000194d0  ti_sysbios_family_arm_v7r_vim_Hwi_E_alreadyDefined__C                
000194d4  ti_sysbios_family_arm_v7r_vim_Hwi_E_badIntNum__C                     
000194d8  ti_sysbios_family_arm_v7r_vim_Hwi_E_phantomInterrupt__C              
000194dc  ti_sysbios_family_arm_v7r_vim_Hwi_E_undefined__C                     
000194e0  ti_sysbios_family_arm_v7r_vim_Hwi_E_unsupportedMaskingOption__C      
000105f0  ti_sysbios_family_arm_v7r_vim_Hwi_Instance_finalize__E               
0000a440  ti_sysbios_family_arm_v7r_vim_Hwi_Instance_init__E                   
000194e4  ti_sysbios_family_arm_v7r_vim_Hwi_LD_end__C                          
000194e8  ti_sysbios_family_arm_v7r_vim_Hwi_LM_begin__C                        
0800abf8  ti_sysbios_family_arm_v7r_vim_Hwi_Module_State_0_dispatchTable__A    
0800b758  ti_sysbios_family_arm_v7r_vim_Hwi_Module_State_0_fiqStack__A         
000194ec  ti_sysbios_family_arm_v7r_vim_Hwi_Module__diagsEnabled__C            
000194f0  ti_sysbios_family_arm_v7r_vim_Hwi_Module__diagsIncluded__C           
000194f4  ti_sysbios_family_arm_v7r_vim_Hwi_Module__diagsMask__C               
00019726  ti_sysbios_family_arm_v7r_vim_Hwi_Module__id__C                      
00019728  ti_sysbios_family_arm_v7r_vim_Hwi_Module__loggerDefined__C           
000194f8  ti_sysbios_family_arm_v7r_vim_Hwi_Module__loggerFxn1__C              
000194fc  ti_sysbios_family_arm_v7r_vim_Hwi_Module__loggerFxn8__C              
00019500  ti_sysbios_family_arm_v7r_vim_Hwi_Module__loggerObj__C               
0800b698  ti_sysbios_family_arm_v7r_vim_Hwi_Module__root__V                    
000178c8  ti_sysbios_family_arm_v7r_vim_Hwi_Module__startupDone__F             
000178c8  ti_sysbios_family_arm_v7r_vim_Hwi_Module__startupDone__S             
0800b3f0  ti_sysbios_family_arm_v7r_vim_Hwi_Module__state__V                   
0000b350  ti_sysbios_family_arm_v7r_vim_Hwi_Module_startup__E                  
00019504  ti_sysbios_family_arm_v7r_vim_Hwi_NUM_INTERRUPTS__C                  
00019248  ti_sysbios_family_arm_v7r_vim_Hwi_Object__DESC__C                    
0001910c  ti_sysbios_family_arm_v7r_vim_Hwi_Object__PARAMS__C                  
00016ec8  ti_sysbios_family_arm_v7r_vim_Hwi_Object__delete__S                  
0800b424  ti_sysbios_family_arm_v7r_vim_Hwi_Object__table__V                   
000187b0  ti_sysbios_family_arm_v7r_vim_Hwi_Params__init__S                    
00018f90  ti_sysbios_family_arm_v7r_vim_Hwi_channelMap__A                      
00019508  ti_sysbios_family_arm_v7r_vim_Hwi_channelMap__C                      
00017f30  ti_sysbios_family_arm_v7r_vim_Hwi_clearInterrupt__E                  
00013258  ti_sysbios_family_arm_v7r_vim_Hwi_create                             
0001888c  ti_sysbios_family_arm_v7r_vim_Hwi_delete                             
00017230  ti_sysbios_family_arm_v7r_vim_Hwi_disableInterrupt__E                
000072a0  ti_sysbios_family_arm_v7r_vim_Hwi_dispatchIRQC__I                    
000128e4  ti_sysbios_family_arm_v7r_vim_Hwi_dispatchIRQ__I                     
00017260  ti_sysbios_family_arm_v7r_vim_Hwi_enableInterrupt__E                 
00014140  ti_sysbios_family_arm_v7r_vim_Hwi_getStackInfo__E                    
00009f60  ti_sysbios_family_arm_v7r_vim_Hwi_initIntController__I               
00016a38  ti_sysbios_family_arm_v7r_vim_Hwi_init__I                            
0001942c  ti_sysbios_family_arm_v7r_vim_Hwi_intReqEnaSet__A                    
0001950c  ti_sysbios_family_arm_v7r_vim_Hwi_intReqEnaSet__C                    
00019510  ti_sysbios_family_arm_v7r_vim_Hwi_phantomFunc__C                     
000141b0  ti_sysbios_family_arm_v7r_vim_Hwi_phantomIntHandler__I               
00009130  ti_sysbios_family_arm_v7r_vim_Hwi_reconfig__E                        
00018890  ti_sysbios_family_arm_v7r_vim_Hwi_startup__E                         
000185c0  ti_sysbios_family_arm_v7r_vim_Hwi_switchFromBootStack__E             
00019514  ti_sysbios_family_arm_v7r_vim_Hwi_taskDisable__C                     
00019518  ti_sysbios_family_arm_v7r_vim_Hwi_taskRestoreHwi__C                  
00000000  ti_sysbios_family_arm_v7r_vim_Hwi_vectors                            
fffffdec  ti_sysbios_family_arm_v7r_vim_Hwi_vim                                
0001943c  ti_sysbios_family_arm_v7r_vim_Hwi_wakeEnaSet__A                      
0001951c  ti_sysbios_family_arm_v7r_vim_Hwi_wakeEnaSet__C                      
00012640  ti_sysbios_family_xxx_Hwi_switchAndRunDispatchC                      
000125f4  ti_sysbios_family_xxx_Hwi_switchAndRunFunc                           
000175f8  ti_sysbios_gates_GateHwi_Handle__label__S                            
00018920  ti_sysbios_gates_GateHwi_Instance_init__E                            
000191b8  ti_sysbios_gates_GateHwi_Module__FXNS__C                             
0800b6a0  ti_sysbios_gates_GateHwi_Module__root__V                             
00019268  ti_sysbios_gates_GateHwi_Object__DESC__C                             
00019364  ti_sysbios_gates_GateHwi_Object__PARAMS__C                           
00015e6c  ti_sysbios_gates_GateHwi_Object__create__S                           
00017290  ti_sysbios_gates_GateHwi_Object__delete__S                           
0800b738  ti_sysbios_gates_GateHwi_Object__table__V                            
000188a0  ti_sysbios_gates_GateHwi_enter__E                                    
000188c0  ti_sysbios_gates_GateHwi_leave__E                                    
000188d0  ti_sysbios_gates_GateHwi_query__E                                    
00019520  ti_sysbios_gates_GateMutex_A_badContext__C                           
00017624  ti_sysbios_gates_GateMutex_Handle__label__S                          
00019524  ti_sysbios_gates_GateMutex_Instance_State_sem__O                     
000185e0  ti_sysbios_gates_GateMutex_Instance_finalize__E                      
000172c0  ti_sysbios_gates_GateMutex_Instance_init__E                          
000191dc  ti_sysbios_gates_GateMutex_Module__FXNS__C                           
00019528  ti_sysbios_gates_GateMutex_Module__diagsEnabled__C                   
0001952c  ti_sysbios_gates_GateMutex_Module__diagsIncluded__C                  
00019530  ti_sysbios_gates_GateMutex_Module__diagsMask__C                      
0001972a  ti_sysbios_gates_GateMutex_Module__id__C                             
0800b6a8  ti_sysbios_gates_GateMutex_Module__root__V                           
00019288  ti_sysbios_gates_GateMutex_Object__DESC__C                           
0001937c  ti_sysbios_gates_GateMutex_Object__PARAMS__C                         
00015eb8  ti_sysbios_gates_GateMutex_Object__create__S                         
00016efc  ti_sysbios_gates_GateMutex_Object__delete__S                         
0800b380  ti_sysbios_gates_GateMutex_Object__table__V                          
0000d0e0  ti_sysbios_gates_GateMutex_enter__E                                  
000178f0  ti_sysbios_gates_GateMutex_leave__E                                  
000188e0  ti_sysbios_gates_GateMutex_query__E                                  
0000d204  ti_sysbios_hal_Core_CoreProxy_getId__E                               
00019534  ti_sysbios_hal_Hwi_E_stackOverflow__C                                
000178c8  ti_sysbios_hal_Hwi_HwiProxy_Module__startupDone__S                   
000187b0  ti_sysbios_hal_Hwi_HwiProxy_Params__init__S                          
00017f30  ti_sysbios_hal_Hwi_HwiProxy_clearInterrupt__E                        
00017230  ti_sysbios_hal_Hwi_HwiProxy_disableInterrupt__E                      
00017260  ti_sysbios_hal_Hwi_HwiProxy_enableInterrupt__E                       
00014140  ti_sysbios_hal_Hwi_HwiProxy_getStackInfo__E                          
00018890  ti_sysbios_hal_Hwi_HwiProxy_startup__E                               
000185c0  ti_sysbios_hal_Hwi_HwiProxy_switchFromBootStack__E                   
0001972c  ti_sysbios_hal_Hwi_Module__id__C                                     
00018380  ti_sysbios_hal_Hwi_Module_startup__E                                 
0800b6b0  ti_sysbios_hal_Hwi_Object__table__V                                  
000155d0  ti_sysbios_hal_Hwi_checkStack                                        
00017f30  ti_sysbios_hal_Hwi_clearInterrupt__E                                 
00017230  ti_sysbios_hal_Hwi_disableInterrupt__E                               
00017260  ti_sysbios_hal_Hwi_enableInterrupt__E                                
00014140  ti_sysbios_hal_Hwi_getStackInfo__E                                   
00015780  ti_sysbios_hal_Hwi_initStack                                         
00018890  ti_sysbios_hal_Hwi_startup__E                                        
000185c0  ti_sysbios_hal_Hwi_switchFromBootStack__E                            
00019538  ti_sysbios_heaps_HeapBuf_Instance_State_freeList__O                  
0800b73c  ti_sysbios_heaps_HeapBuf_Module__state__V                            
0000ad70  ti_sysbios_heaps_HeapBuf_Module_startup__E                           
0001953c  ti_sysbios_heaps_HeapBuf_Object__count__C                            
00018398  ti_sysbios_heaps_HeapBuf_Object__get__S                              
00019540  ti_sysbios_heaps_HeapBuf_numConstructedHeaps__C                      
00019544  ti_sysbios_heaps_HeapMem_A_align__C                                  
00019548  ti_sysbios_heaps_HeapMem_A_heapSize__C                               
0001954c  ti_sysbios_heaps_HeapMem_A_invalidFree__C                            
00019550  ti_sysbios_heaps_HeapMem_A_zeroBlock__C                              
00019554  ti_sysbios_heaps_HeapMem_E_memory__C                                 
00017650  ti_sysbios_heaps_HeapMem_Handle__label__S                            
08000000  ti_sysbios_heaps_HeapMem_Instance_State_0_buf__A                     
00008b60  ti_sysbios_heaps_HeapMem_Instance_init__E                            
00017624  ti_sysbios_heaps_HeapMem_Module_GateProxy_Handle__label__S           
0001889c  ti_sysbios_heaps_HeapMem_Module_GateProxy_enter__E                   
000188ac  ti_sysbios_heaps_HeapMem_Module_GateProxy_leave__E                   
000188e0  ti_sysbios_heaps_HeapMem_Module_GateProxy_query__E                   
00019190  ti_sysbios_heaps_HeapMem_Module__FXNS__C                             
00019558  ti_sysbios_heaps_HeapMem_Module__diagsEnabled__C                     
0001955c  ti_sysbios_heaps_HeapMem_Module__diagsIncluded__C                    
00019560  ti_sysbios_heaps_HeapMem_Module__diagsMask__C                        
00019564  ti_sysbios_heaps_HeapMem_Module__gateObj__C                          
0001972e  ti_sysbios_heaps_HeapMem_Module__id__C                               
0800b6b8  ti_sysbios_heaps_HeapMem_Module__root__V                             
000192a8  ti_sysbios_heaps_HeapMem_Object__DESC__C                             
00019200  ti_sysbios_heaps_HeapMem_Object__PARAMS__C                           
00019568  ti_sysbios_heaps_HeapMem_Object__count__C                            
00015f04  ti_sysbios_heaps_HeapMem_Object__create__S                           
000172f0  ti_sysbios_heaps_HeapMem_Object__delete__S                           
000180dc  ti_sysbios_heaps_HeapMem_Object__get__S                              
0800b5e0  ti_sysbios_heaps_HeapMem_Object__table__V                            
00005950  ti_sysbios_heaps_HeapMem_allocUnprotected__E                         
00012c60  ti_sysbios_heaps_HeapMem_alloc__E                                    
000055e0  ti_sysbios_heaps_HeapMem_freeUnprotected__E                          
00016340  ti_sysbios_heaps_HeapMem_free__E                                     
000133f0  ti_sysbios_heaps_HeapMem_getStats__E                                 
00014520  ti_sysbios_heaps_HeapMem_init__I                                     
000188f0  ti_sysbios_heaps_HeapMem_isBlocking__E                               
0001956c  ti_sysbios_heaps_HeapMem_reqAlign__C                                 
00019570  ti_sysbios_knl_Clock_LM_begin__C                                     
00019574  ti_sysbios_knl_Clock_LM_tick__C                                      
00019578  ti_sysbios_knl_Clock_LW_delayed__C                                   
0001957c  ti_sysbios_knl_Clock_Module_State_clockQ__O                          
00019580  ti_sysbios_knl_Clock_Module__diagsEnabled__C                         
00019584  ti_sysbios_knl_Clock_Module__diagsIncluded__C                        
00019588  ti_sysbios_knl_Clock_Module__diagsMask__C                            
00019730  ti_sysbios_knl_Clock_Module__id__C                                   
00019732  ti_sysbios_knl_Clock_Module__loggerDefined__C                        
0001958c  ti_sysbios_knl_Clock_Module__loggerFxn1__C                           
00019590  ti_sysbios_knl_Clock_Module__loggerFxn2__C                           
00019594  ti_sysbios_knl_Clock_Module__loggerObj__C                            
0800b450  ti_sysbios_knl_Clock_Module__state__V                                
00016f30  ti_sysbios_knl_Clock_Module_startup__E                               
0800b534  ti_sysbios_knl_Clock_Object__table__V                                
00017940  ti_sysbios_knl_Clock_TimerProxy_Module__startupDone__S               
000188bc  ti_sysbios_knl_Clock_TimerProxy_getMaxTicks__E                       
0000d340  ti_sysbios_knl_Clock_TimerProxy_startup__E                           
0001619c  ti_sysbios_knl_Clock_doTick__I                                       
00012390  ti_sysbios_knl_Clock_logTick__E                                      
00009890  ti_sysbios_knl_Clock_workFunc__E                                     
00019598  ti_sysbios_knl_Event_A_badContext__C                                 
0001959c  ti_sysbios_knl_Event_A_eventInUse__C                                 
000195a0  ti_sysbios_knl_Event_A_nullEventId__C                                
000195a4  ti_sysbios_knl_Event_A_nullEventMasks__C                             
000195a8  ti_sysbios_knl_Event_A_pendTaskDisabled__C                           
000195ac  ti_sysbios_knl_Event_Instance_State_pendQ__O                         
00018100  ti_sysbios_knl_Event_Instance_init__E                                
000195b0  ti_sysbios_knl_Event_LM_pend__C                                      
000195b4  ti_sysbios_knl_Event_LM_post__C                                      
000195b8  ti_sysbios_knl_Event_Module__diagsEnabled__C                         
000195bc  ti_sysbios_knl_Event_Module__diagsIncluded__C                        
000195c0  ti_sysbios_knl_Event_Module__diagsMask__C                            
00019734  ti_sysbios_knl_Event_Module__id__C                                   
00019736  ti_sysbios_knl_Event_Module__loggerDefined__C                        
000195c4  ti_sysbios_knl_Event_Module__loggerFxn4__C                           
000195c8  ti_sysbios_knl_Event_Module__loggerFxn8__C                           
000195cc  ti_sysbios_knl_Event_Module__loggerObj__C                            
0800b6c0  ti_sysbios_knl_Event_Module__root__V                                 
000192c8  ti_sysbios_knl_Event_Object__DESC__C                                 
00019394  ti_sysbios_knl_Event_Object__PARAMS__C                               
00015f50  ti_sysbios_knl_Event_create                                          
00015c00  ti_sysbios_knl_Event_pendTimeout__I                                  
000024c0  ti_sysbios_knl_Event_pend__E                                         
00008540  ti_sysbios_knl_Event_post__E                                         
00019458  ti_sysbios_knl_Idle_funcList__A                                      
00019474  ti_sysbios_knl_Idle_funcList__C                                      
000183b0  ti_sysbios_knl_Idle_loop__E                                          
00016f70  ti_sysbios_knl_Idle_run__E                                           
000188b0  ti_sysbios_knl_Queue_Instance_init__E                                
0800b6c8  ti_sysbios_knl_Queue_Module__root__V                                 
000192e8  ti_sysbios_knl_Queue_Object__DESC__C                                 
000193ac  ti_sysbios_knl_Queue_Object__PARAMS__C                               
000187c0  ti_sysbios_knl_Queue_Object__get__S                                  
00016384  ti_sysbios_knl_Queue_construct                                       
00017918  ti_sysbios_knl_Queue_destruct                                        
000183d0  ti_sysbios_knl_Queue_empty__E                                        
000195d0  ti_sysbios_knl_Semaphore_A_badContext__C                             
000195d4  ti_sysbios_knl_Semaphore_A_noEvents__C                               
000195d8  ti_sysbios_knl_Semaphore_A_overflow__C                               
000195dc  ti_sysbios_knl_Semaphore_A_pendTaskDisabled__C                       
000195e0  ti_sysbios_knl_Semaphore_Instance_State_pendQ__O                     
00018600  ti_sysbios_knl_Semaphore_Instance_finalize__E                        
0000de10  ti_sysbios_knl_Semaphore_Instance_init__E                            
000195e4  ti_sysbios_knl_Semaphore_LM_pend__C                                  
000195e8  ti_sysbios_knl_Semaphore_LM_post__C                                  
000195ec  ti_sysbios_knl_Semaphore_Module__diagsEnabled__C                     
000195f0  ti_sysbios_knl_Semaphore_Module__diagsIncluded__C                    
000195f4  ti_sysbios_knl_Semaphore_Module__diagsMask__C                        
00019738  ti_sysbios_knl_Semaphore_Module__id__C                               
0001973a  ti_sysbios_knl_Semaphore_Module__loggerDefined__C                    
000195f8  ti_sysbios_knl_Semaphore_Module__loggerFxn2__C                       
000195fc  ti_sysbios_knl_Semaphore_Module__loggerFxn4__C                       
00019600  ti_sysbios_knl_Semaphore_Module__loggerObj__C                        
0800b6d0  ti_sysbios_knl_Semaphore_Module__root__V                             
00019308  ti_sysbios_knl_Semaphore_Object__DESC__C                             
00019224  ti_sysbios_knl_Semaphore_Object__PARAMS__C                           
00016fa4  ti_sysbios_knl_Semaphore_Object__delete__S                           
000187d0  ti_sysbios_knl_Semaphore_Params__init__S                             
00015f9c  ti_sysbios_knl_Semaphore_construct                                   
000157d4  ti_sysbios_knl_Semaphore_create                                      
000188c8  ti_sysbios_knl_Semaphore_delete                                      
0001767c  ti_sysbios_knl_Semaphore_destruct                                    
00015c50  ti_sysbios_knl_Semaphore_pendTimeout__I                              
00003450  ti_sysbios_knl_Semaphore_pend__E                                     
00009320  ti_sysbios_knl_Semaphore_post__E                                     
00019604  ti_sysbios_knl_Task_A_badPriority__C                                 
00019608  ti_sysbios_knl_Task_A_badTaskState__C                                
0001960c  ti_sysbios_knl_Task_A_badThreadType__C                               
00019610  ti_sysbios_knl_Task_A_noPendElem__C                                  
00019614  ti_sysbios_knl_Task_E_spOutOfBounds__C                               
00019618  ti_sysbios_knl_Task_E_stackOverflow__C                               
08009cb8  ti_sysbios_knl_Task_Instance_State_0_hookEnv__A                      
08009000  ti_sysbios_knl_Task_Instance_State_0_stack__A                        
000041f0  ti_sysbios_knl_Task_Instance_finalize__E                             
00005f60  ti_sysbios_knl_Task_Instance_init__E                                 
0001961c  ti_sysbios_knl_Task_LD_block__C                                      
00019620  ti_sysbios_knl_Task_LD_exit__C                                       
00019624  ti_sysbios_knl_Task_LD_ready__C                                      
00019628  ti_sysbios_knl_Task_LM_switch__C                                     
0800b740  ti_sysbios_knl_Task_Module_State_0_idleTask__A                       
0800b110  ti_sysbios_knl_Task_Module_State_0_readyQ__A                         
0001962c  ti_sysbios_knl_Task_Module_State_inactiveQ__O                        
00019630  ti_sysbios_knl_Task_Module__diagsEnabled__C                          
00019634  ti_sysbios_knl_Task_Module__diagsIncluded__C                         
00019638  ti_sysbios_knl_Task_Module__diagsMask__C                             
0001973c  ti_sysbios_knl_Task_Module__id__C                                    
0001973e  ti_sysbios_knl_Task_Module__loggerDefined__C                         
0001963c  ti_sysbios_knl_Task_Module__loggerFxn2__C                            
00019640  ti_sysbios_knl_Task_Module__loggerFxn4__C                            
00019644  ti_sysbios_knl_Task_Module__loggerObj__C                             
0800b6d8  ti_sysbios_knl_Task_Module__root__V                                  
0800b33c  ti_sysbios_knl_Task_Module__state__V                                 
0000eea0  ti_sysbios_knl_Task_Module_startup__E                                
00019328  ti_sysbios_knl_Task_Object__DESC__C                                  
000190d0  ti_sysbios_knl_Task_Object__PARAMS__C                                
00019648  ti_sysbios_knl_Task_Object__count__C                                 
000183e8  ti_sysbios_knl_Task_Object__get__S                                   
0001964c  ti_sysbios_knl_Task_Object__heap__C                                  
0800b2a8  ti_sysbios_knl_Task_Object__table__V                                 
000187e0  ti_sysbios_knl_Task_Params__init__S                                  
000133e8  ti_sysbios_knl_Task_SupportProxy_Module__startupDone__S              
00018580  ti_sysbios_knl_Task_SupportProxy_checkStack__E                       
00018730  ti_sysbios_knl_Task_SupportProxy_getStackAlignment__E                
00015570  ti_sysbios_knl_Task_SupportProxy_start__E                            
00018284  ti_sysbios_knl_Task_SupportProxy_swap__E                             
00019650  ti_sysbios_knl_Task_allBlockedFunc__C                                
00014590  ti_sysbios_knl_Task_allBlockedFunction__I                            
0000e810  ti_sysbios_knl_Task_blockI__E                                        
00013678  ti_sysbios_knl_Task_create                                           
00019654  ti_sysbios_knl_Task_defaultStackHeap__C                              
00019658  ti_sysbios_knl_Task_defaultStackSize__C                              
00018400  ti_sysbios_knl_Task_disable__E                                       
000176b0  ti_sysbios_knl_Task_enter__I                                         
0000aef0  ti_sysbios_knl_Task_exit__E                                          
000193c4  ti_sysbios_knl_Task_hooks__A                                         
0001947c  ti_sysbios_knl_Task_hooks__C                                         
0001965c  ti_sysbios_knl_Task_numConstructedTasks__C                           
0000a2a0  ti_sysbios_knl_Task_postInit__I                                      
00017320  ti_sysbios_knl_Task_restoreHwi__E                                    
00016c80  ti_sysbios_knl_Task_restore__E                                       
00006ac0  ti_sysbios_knl_Task_schedule__I                                      
0000a5d0  ti_sysbios_knl_Task_startCore__E                                     
00018930  ti_sysbios_knl_Task_startup__E                                       
0000c4d0  ti_sysbios_knl_Task_unblockI__E                                      
00019660  ti_sysbios_timers_rti_Timer_E_cannotSupport__C                       
0800b5f8  ti_sysbios_timers_rti_Timer_Module_State_0_device__A                 
0800b6e0  ti_sysbios_timers_rti_Timer_Module_State_0_handles__A                
0800b644  ti_sysbios_timers_rti_Timer_Module_State_0_intFreqs__A               
00019664  ti_sysbios_timers_rti_Timer_Module__diagsEnabled__C                  
00019668  ti_sysbios_timers_rti_Timer_Module__diagsIncluded__C                 
0001966c  ti_sysbios_timers_rti_Timer_Module__diagsMask__C                     
00019740  ti_sysbios_timers_rti_Timer_Module__id__C                            
00017940  ti_sysbios_timers_rti_Timer_Module__startupDone__F                   
00017940  ti_sysbios_timers_rti_Timer_Module__startupDone__S                   
0800b654  ti_sysbios_timers_rti_Timer_Module__state__V                         
00005260  ti_sysbios_timers_rti_Timer_Module_startup__E                        
0800b3b8  ti_sysbios_timers_rti_Timer_Object__table__V                         
00019742  ti_sysbios_timers_rti_Timer_continueOnSuspend__C                     
0000cb10  ti_sysbios_timers_rti_Timer_getFreq__E                               
00018900  ti_sysbios_timers_rti_Timer_getMaxTicks__E                           
0000ffa0  ti_sysbios_timers_rti_Timer_initDevice__I                            
00019670  ti_sysbios_timers_rti_Timer_numTimerDevices__C                       
000163d0  ti_sysbios_timers_rti_Timer_periodicStub__E                          
00019674  ti_sysbios_timers_rti_Timer_startupNeeded__C                         
0000d340  ti_sysbios_timers_rti_Timer_startup__E                               
00019678  ti_sysbios_utils_Load_LS_cpuLoad__C                                  
0001967c  ti_sysbios_utils_Load_LS_taskLoad__C                                 
0800b744  ti_sysbios_utils_Load_Module_State_0_runningTask__A                  
0800b594  ti_sysbios_utils_Load_Module_State_0_taskEnv__A                      
0800b748  ti_sysbios_utils_Load_Module_State_0_taskStartTime__A                
00019680  ti_sysbios_utils_Load_Module_State_taskList__O                       
00019684  ti_sysbios_utils_Load_Module__diagsEnabled__C                        
00019688  ti_sysbios_utils_Load_Module__diagsIncluded__C                       
0001968c  ti_sysbios_utils_Load_Module__diagsMask__C                           
00019744  ti_sysbios_utils_Load_Module__id__C                                  
00019746  ti_sysbios_utils_Load_Module__loggerDefined__C                       
00019690  ti_sysbios_utils_Load_Module__loggerFxn1__C                          
00019694  ti_sysbios_utils_Load_Module__loggerFxn4__C                          
00019698  ti_sysbios_utils_Load_Module__loggerObj__C                           
0800b078  ti_sysbios_utils_Load_Module__state__V                               
00019748  ti_sysbios_utils_Load_autoAddTasks__C                                
000187f0  ti_sysbios_utils_Load_getCPULoad__E                                  
0000d8c0  ti_sysbios_utils_Load_idleFxn__E                                     
0000d580  ti_sysbios_utils_Load_logLoads__I                                    
0001969c  ti_sysbios_utils_Load_postUpdate__C                                  
00010390  ti_sysbios_utils_Load_startup__E                                     
0000d210  ti_sysbios_utils_Load_taskCreateHook__E                              
00010bf0  ti_sysbios_utils_Load_taskDeleteHook__E                              
00018800  ti_sysbios_utils_Load_taskRegHook__E                                 
00013700  ti_sysbios_utils_Load_taskSwitchHook__E                              
00012980  ti_sysbios_utils_Load_updateCurrentThreadTime__E                     
0001974a  ti_sysbios_utils_Load_updateInIdle__C                                
0000b4c0  ti_sysbios_utils_Load_updateLoads__E                                 
0000bd00  ti_sysbios_utils_Load_updateThreadContexts__E                        
0000b4c0  ti_sysbios_utils_Load_update__E                                      
000196a0  ti_sysbios_utils_Load_windowInMs__C                                  
000175a1  unlink                                                               
0800973c  usefulframes_forgesture                                              
08009e34  vel_disparr                                                          
08009ccc  vel_res                                                              
000131d1  vsnprintf                                                            
00017849  write                                                                
08009d94  wt_dopplerarr                                                        
08009d44  wt_rangearr                                                          
000196a4  xdc_runtime_Assert_E_assertFailed__C                                 
00013974  xdc_runtime_Assert_raise__I                                          
000196a8  xdc_runtime_Core_A_initializedParams__C                              
000196ac  xdc_runtime_Core_Module__diagsEnabled__C                             
000196b0  xdc_runtime_Core_Module__diagsIncluded__C                            
000196b4  xdc_runtime_Core_Module__diagsMask__C                                
0001974c  xdc_runtime_Core_Module__id__C                                       
0001519c  xdc_runtime_Core_assignLabel__I                                      
00014c64  xdc_runtime_Core_assignParams__I                                     
0000c388  xdc_runtime_Core_constructObject__I                                  
0000abf0  xdc_runtime_Core_createObject__I                                     
0001268c  xdc_runtime_Core_deleteObject__I                                     
000196b8  xdc_runtime_Error_E_memory__C                                        
0800b554  xdc_runtime_Error_IgnoreBlock                                        
000196bc  xdc_runtime_Error_Module__diagsEnabled__C                            
000196c0  xdc_runtime_Error_Module__diagsIncluded__C                           
000196c4  xdc_runtime_Error_Module__diagsMask__C                               
0001974e  xdc_runtime_Error_Module__loggerDefined__C                           
000196c8  xdc_runtime_Error_Module__loggerFxn8__C                              
000196cc  xdc_runtime_Error_Module__loggerObj__C                               
0800b754  xdc_runtime_Error_Module__state__V                                   
00017350  xdc_runtime_Error_check__E                                           
000155c8  xdc_runtime_Error_getSite__E                                         
00017968  xdc_runtime_Error_init__E                                            
00019750  xdc_runtime_Error_maxDepth__C                                        
00009a54  xdc_runtime_Error_policyDefault__E                                   
000196d0  xdc_runtime_Error_policyFxn__C                                       
00018e51  xdc_runtime_Error_policy__C                                          
00011c20  xdc_runtime_Error_print__E                                           
000196d4  xdc_runtime_Error_raiseHook__C                                       
00017380  xdc_runtime_Error_raiseX__E                                          
00014870  xdc_runtime_Error_setX__E                                            
00018810  xdc_runtime_Gate_enterSystem__E                                      
00018614  xdc_runtime_Gate_leaveSystem__E                                      
000196d8  xdc_runtime_IGateProvider_Interface__BASE__C                         
000196dc  xdc_runtime_IHeap_Interface__BASE__C                                 
000196e0  xdc_runtime_IModule_Interface__BASE__C                               
000196e4  xdc_runtime_Log_L_error__C                                           
000175f8  xdc_runtime_Main_Module_GateProxy_Handle__label__S                   
000188d0  xdc_runtime_Main_Module_GateProxy_query__E                           
00019752  xdc_runtime_Main_Module__id__C                                       
00017650  xdc_runtime_Memory_HeapProxy_Handle__label__S                        
00018628  xdc_runtime_Memory_HeapProxy_alloc__E                                
0001863c  xdc_runtime_Memory_HeapProxy_free__E                                 
00019754  xdc_runtime_Memory_Module__id__C                                     
0800b74c  xdc_runtime_Memory_Module__state__V                                  
00010f88  xdc_runtime_Memory_alloc__E                                          
00018650  xdc_runtime_Memory_calloc__E                                         
000196e8  xdc_runtime_Memory_defaultHeapInstance__C                            
00018664  xdc_runtime_Memory_free__E                                           
00018820  xdc_runtime_Memory_getMaxDefaultTypeAlign__E                         
000173b0  xdc_runtime_Memory_valloc__E                                         
0800b6e8  xdc_runtime_Registry_Module__state__V                                
00016fd8  xdc_runtime_Registry_findById__E                                     
0800b6f0  xdc_runtime_Startup_Module__state__V                                 
00000001  xdc_runtime_Startup__EXECFXN__C                                      
00000001  xdc_runtime_Startup__RESETFXN__C                                     
000196ec  xdc_runtime_Startup_execImpl__C                                      
00012fac  xdc_runtime_Startup_exec__E                                          
0001811c  xdc_runtime_Startup_exec__I                                          
00019484  xdc_runtime_Startup_firstFxns__A                                     
0001948c  xdc_runtime_Startup_firstFxns__C                                     
00019494  xdc_runtime_Startup_lastFxns__C                                      
000196f0  xdc_runtime_Startup_maxPasses__C                                     
000188cc  xdc_runtime_Startup_reset__I                                         
00018830  xdc_runtime_Startup_rtsDone__E                                       
000193dc  xdc_runtime_Startup_sfxnRts__A                                       
000196f4  xdc_runtime_Startup_sfxnRts__C                                       
0001913c  xdc_runtime_Startup_sfxnTab__A                                       
000196f8  xdc_runtime_Startup_sfxnTab__C                                       
0000b8fc  xdc_runtime_Startup_startMods__I                                     
0001700c  xdc_runtime_SysStd_abort__E                                          
0000d334  xdc_runtime_SysStd_exit__E                                           
000188d8  xdc_runtime_SysStd_putch__E                                          
00015bf8  xdc_runtime_SysStd_ready__E                                          
000175f8  xdc_runtime_System_Module_GateProxy_Handle__label__S                 
000188dc  xdc_runtime_System_Module_GateProxy_enter__E                         
000188e8  xdc_runtime_System_Module_GateProxy_leave__E                         
000188d0  xdc_runtime_System_Module_GateProxy_query__E                         
0800b574  xdc_runtime_System_Module_State_0_atexitHandlers__A                  
000196fc  xdc_runtime_System_Module__gateObj__C                                
0800b6f8  xdc_runtime_System_Module__state__V                                  
000163c8  xdc_runtime_System_Module_startup__E                                 
0001700c  xdc_runtime_System_SupportProxy_abort__E                             
0000d334  xdc_runtime_System_SupportProxy_exit__E                              
000188d8  xdc_runtime_System_SupportProxy_putch__E                             
00015bf8  xdc_runtime_System_SupportProxy_ready__E                             
00019700  xdc_runtime_System_abortFxn__C                                       
00015b5d  xdc_runtime_System_abortStd__E                                       
00017990  xdc_runtime_System_abort__E                                          
000179b8  xdc_runtime_System_aprintf__E                                        
000188ec  xdc_runtime_System_aprintf_va__F                                     
00015828  xdc_runtime_System_atexit__E                                         
0001661c  xdc_runtime_System_avprintf__E                                       
00002a24  xdc_runtime_System_doPrint__I                                        
00019704  xdc_runtime_System_exitFxn__C                                        
00015b65  xdc_runtime_System_exitStd__E                                        
00017d5c  xdc_runtime_System_exit__E                                           
00019708  xdc_runtime_System_extendFxn__C                                      
00011844  xdc_runtime_System_formatNum__I                                      
0001970c  xdc_runtime_System_maxAtexitHandlers__C                              
0000a8e4  xdc_runtime_System_printfExtend__I                                   
000179e0  xdc_runtime_System_printf__E                                         
000188f8  xdc_runtime_System_printf_va__F                                      
000161e4  xdc_runtime_System_processAtExit__E                                  
0001587c  xdc_runtime_System_putchar__I                                        
00016a74  xdc_runtime_System_vprintf__E                                        
00018138  xdc_runtime_System_vsnprintf__E                                      
00019756  xdc_runtime_Text_charCnt__C                                          
0001975e  xdc_runtime_Text_charTab__A                                          
00019710  xdc_runtime_Text_charTab__C                                          
00016414  xdc_runtime_Text_cordText__E                                         
00019758  xdc_runtime_Text_isLoaded__C                                         
00019714  xdc_runtime_Text_nameEmpty__C                                        
00019718  xdc_runtime_Text_nameStatic__C                                       
0001971c  xdc_runtime_Text_nameUnknown__C                                      
000158d0  xdc_runtime_Text_printVisFxn__I                                      
00011f44  xdc_runtime_Text_putLab__E                                           
0000ef84  xdc_runtime_Text_putMod__E                                           
0000ea04  xdc_runtime_Text_putSite__E                                          
0001975a  xdc_runtime_Text_registryModsLastId__C                               
00018154  xdc_runtime_Text_ropeText__E                                         
0001975c  xdc_runtime_Text_unnamedModsLastId__C                                
00019720  xdc_runtime_Text_visitRopeFxn__C                                     
000105e4  xdc_runtime_Text_visitRope__I                                        
00014f08  xdc_runtime_Text_xprintf__I                                          
000136f8  xdc_runtime_Timestamp_SupportProxy_get32__E                          
00018720  xdc_runtime_Timestamp_SupportProxy_getFreq__E                        
000136f8  xdc_runtime_Timestamp_get32__E                                       
00018720  xdc_runtime_Timestamp_getFreq__E                                     


GLOBAL SYMBOLS: SORTED BY Symbol Address 

address   name                                                                 
-------   ----                                                                 
00000000  __ASM__                                                              
00000000  ti_sysbios_family_arm_v7r_vim_Hwi_vectors                            
00000001  xdc_runtime_Startup__EXECFXN__C                                      
00000001  xdc_runtime_Startup__RESETFXN__C                                     
00000073  __ISA__                                                              
00000085  __PLAT__                                                             
000000a9  __TARG__                                                             
000000cf  __TRDR__                                                             
000004b0  __STACK_SIZE                                                         
000008c5  __TI_printfi                                                         
0000117b  ADCBUF_MMWave_init                                                   
0000117d  Handmadeclassifier_prediction                                        
00001931  __kernel_rem_pio2                                                    
00001f2d  HWA_configParamSet                                                   
000024bb  EDMA3ClrCCErr                                                        
000024c0  ti_sysbios_knl_Event_pend__E                                         
00002a24  xdc_runtime_System_doPrint__I                                        
00002f65  MmwDemo_dataPathTask                                                 
00003450  ti_sysbios_knl_Semaphore_pend__E                                     
00003901  HWAutil_configDopplerFFT                                             
00003da7  HWA_init                                                             
00003da9  MmwDemo_config2D_EDMA                                                
000041f0  ti_sysbios_knl_Task_Instance_finalize__E                             
00004621  ADCBUF_MMWave_control                                                
00004a4d  MmwDemo_parseProfileAndChirpConfig                                   
00004e61  cos                                                                  
00004e61  cosl                                                                 
00005255  EDMA3ChannelToParamMap                                               
00005260  ti_sysbios_timers_rti_Timer_Module_startup__E                        
000055d5  EDMAsetRegion                                                        
000055e0  ti_sysbios_heaps_HeapMem_freeUnprotected__E                          
00005950  ti_sysbios_heaps_HeapMem_allocUnprotected__E                         
00005c55  MMWave_osalMutexUnlock                                               
00005c60  ti_sysbios_family_arm_exc_Exception_excDumpContext__I                
00005f5d  EDMA_getNumInstances                                                 
00005f60  ti_sysbios_knl_Task_Instance_init__E                                 
0000625d  MmwDemo_rangeBiasRxChPhaseMeasure                                    
00006545  MmwDemo_CLIInit                                                      
00006808  __aeabi_uldivmod                                                     
00006ac0  ti_sysbios_knl_Task_schedule__I                                      
00006d69  asin                                                                 
00006d69  asinl                                                                
0000729d  HwiP_disableInterrupt                                                
000072a0  ti_sysbios_family_arm_v7r_vim_Hwi_dispatchIRQC__I                    
00007531  Gesture_findNumDetections                                            
000077bd  HwiP_enableInterrupt                                                 
000077c0  ti_sysbios_family_arm_exc_Exception_excHandler__I                    
00007a41  MmwDemo_dataPathConfigCommon                                         
00007ed9  MmwDemo_dcRangeSignatureCompensation                                 
0000810d  SOC_deviceInit                                                       
00008329  HWAutil_configAngleEstAzimuthElevation                               
0000853f  MMWave_deviceEventFxn                                                
00008540  ti_sysbios_knl_Event_post__E                                         
00008755  HWAutil_configRangeFFT                                               
0000895d  log10                                                                
0000895d  log10l                                                               
00008b5d  MMWave_deviceCfgFxn                                                  
00008b60  ti_sysbios_heaps_HeapMem_Instance_init__E                            
00008d59  HWA_configCommon                                                     
00008f4d  strtod                                                               
00008f4d  strtold                                                              
00009130  ti_sysbios_family_arm_v7r_vim_Hwi_reconfig__E                        
00009315  MMWave_osalSemSignal                                                 
00009320  ti_sysbios_knl_Semaphore_post__E                                     
000095cf  __TI_cleanup                                                         
000095fb  freopen                                                              
00009625  fopen                                                                
00009890  ti_sysbios_knl_Clock_workFunc__E                                     
00009a54  xdc_runtime_Error_policyDefault__E                                   
00009f5f  __aeabi_idiv0                                                        
00009f60  ti_sysbios_family_arm_v7r_vim_Hwi_initIntController__I               
0000a101  rlDriverCmdInvoke                                                    
0000a299  HwiP_disable                                                         
0000a2a0  ti_sysbios_knl_Task_postInit__I                                      
0000a435  __TI_zero_init                                                       
0000a440  ti_sysbios_family_arm_v7r_vim_Hwi_Instance_init__E                   
0000a5cd  MMWave_deviceExecuteFxn                                              
0000a5d0  ti_sysbios_knl_Task_startCore__E                                     
0000a75d  HWA_open                                                             
0000a8e4  xdc_runtime_System_printfExtend__I                                   
0000aa6d  rlDriverRxHdrRead                                                    
0000abf0  xdc_runtime_Core_createObject__I                                     
0000ad6d  MMWave_deviceInitFxn                                                 
0000ad70  ti_sysbios_heaps_HeapBuf_Module_startup__E                           
0000aee5  rlDriverGetPlatformId                                                
0000aef0  ti_sysbios_knl_Task_exit__E                                          
0000b065  EDMA_open                                                            
0000b1d5  GPIO_setConfig                                                       
0000b344  ti_sysbios_family_arm_v7a_Pmu_configureCounterI__I                   
0000b350  ti_sysbios_family_arm_v7r_vim_Hwi_Module_startup__E                  
0000b4c0  ti_sysbios_utils_Load_updateLoads__E                                 
0000b4c0  ti_sysbios_utils_Load_update__E                                      
0000b631  MmwDemo_eventCallbackFxn                                             
0000b79d  Mailbox_open                                                         
0000b8fc  xdc_runtime_Startup_startMods__I                                     
0000bba9  MmwDemo_config1D_EDMA                                                
0000bcfd  MMWave_deviceOpenFxn                                                 
0000bd00  ti_sysbios_utils_Load_updateThreadContexts__E                        
0000c388  xdc_runtime_Core_constructObject__I                                  
0000c4cd  MMWave_deviceStartFxn                                                
0000c4d0  ti_sysbios_knl_Task_unblockI__E                                      
0000c751  EDMA_configChannel                                                   
0000c88d  MmwDemo_ADCBufConfig                                                 
0000c9c4  ti_sysbios_family_arm_v7a_Pmu_getCountI__E                           
0000c9d0  ti_sysbios_family_arm_v7a_Pmu_configureCounter__E                    
0000cb09  MMWave_deviceGetDeviceInfo                                           
0000cb10  ti_sysbios_timers_rti_Timer_getFreq__E                               
0000cd69  rlDriverMsgRead                                                      
0000cfb5  EDMA_init                                                            
0000d0e0  ti_sysbios_gates_GateMutex_enter__E                                  
0000d204  ti_sysbios_family_arm_v7r_tms570_Core_getId__E                       
0000d204  ti_sysbios_hal_Core_CoreProxy_getId__E                               
0000d210  ti_sysbios_utils_Load_taskCreateHook__E                              
0000d334  xdc_runtime_SysStd_exit__E                                           
0000d334  xdc_runtime_System_SupportProxy_exit__E                              
0000d340  ti_sysbios_knl_Clock_TimerProxy_startup__E                           
0000d340  ti_sysbios_timers_rti_Timer_startup__E                               
0000d45d  EDMAutil_configHwaTranspose                                          
0000d577  ADCBuf_control                                                       
0000d580  ti_sysbios_utils_Load_logLoads__I                                    
0000d7ad  rlDriverCmdSendRetry                                                 
0000d8c0  ti_sysbios_utils_Load_idleFxn__E                                     
0000dae5  MmwDemo_configAngleEstimation_HWA                                    
0000dbf5  MmwDemo_configCFAR_EDMA                                              
0000dd01  Mailbox_write                                                        
0000de09  MmwDemo_dataPathHwaDoneIsrCallback                                   
0000de10  ti_sysbios_knl_Semaphore_Instance_init__E                            
0000df19  EDMAutil_configHwaContiguous                                         
0000e11d  MMWave_openLink                                                      
0000e21d  MMWave_startLink                                                     
0000e31d  rlDriverInit                                                         
0000e41d  CRC_computeSignature                                                 
0000e519  MmwDemo_config1D_HWA                                                 
0000e615  MmwDemo_config2D_HWA                                                 
0000e711  main                                                                 
0000e80d  MMWave_deviceStopFxn                                                 
0000e810  ti_sysbios_knl_Task_blockI__E                                        
0000e90d  rlDriverRdVerifyMsg                                                  
0000ea04  xdc_runtime_Text_putSite__E                                          
0000eaf8  __TI_auto_init                                                       
0000ebe5  ldexp                                                                
0000ebe5  ldexpl                                                               
0000ebe5  scalbn                                                               
0000ebe5  scalbnl                                                              
0000ecd1  HWAutil_configAngleEstAzimuth                                        
0000eea0  ti_sysbios_knl_Task_Module_startup__E                                
0000ef84  xdc_runtime_Text_putMod__E                                           
0000f14d  CLI_open                                                             
0000f22d  floor                                                                
0000f22d  floorl                                                               
0000f30d  MMWave_deviceSyncFxn                                                 
0000f310  ti_sysbios_family_arm_v7a_Pmu_getCount__E                            
0000f3f0  ti_sysbios_family_arm_v7a_Pmu_startCounter__E                        
0000f4d1  Mailbox_read                                                         
0000f5ad  ceil                                                                 
0000f5ad  ceill                                                                
0000f689  setvbuf                                                              
0000f765  EDMAutil_configHwaOneHotSignature                                    
0000f841  ADCBUF_MMWave_open                                                   
0000f919  EDMA_configErrorMonitoring                                           
0000f9f1  rlSetMultiBpmChirpConfig                                             
0000fac5  MmwDemo_dataPathCfgBuffers                                           
0000fb98  ti_sysbios_family_arm_exc_Exception_excHandlerAsm__I                 
0000fc00  ti_sysbios_family_arm_exc_Exception_excHandlerDataAsm__I             
0000fe01  rlSetChirpConfig                                                     
0000fecd  __TI_doflush                                                         
0000ff19  fflush                                                               
0000ff99  SemaphoreP_Params_init                                               
0000ffa0  ti_sysbios_timers_rti_Timer_initDevice__I                            
0001006d  MMWave_addChirp                                                      
00010135  MMWave_configBPM                                                     
000101fd  MMWave_flushCfg                                                      
000102c5  MMWave_getChirpHandle                                                
00010390  ti_sysbios_utils_Load_startup__E                                     
00010459  MmwDemo_quadFit                                                      
00010521  MmwDemo_measurementResultOutput                                      
000105e4  xdc_runtime_Text_visitRope__I                                        
000105f0  ti_sysbios_family_arm_v7r_vim_Hwi_Instance_finalize__E               
000106b5  MmwDemo_sensorMgmtInit                                               
00010775  rlSetFrameConfig                                                     
00010835  HWA_enableParamSetInterrupt                                          
000109b1  GPIO_write                                                           
00010b29  open                                                                 
00010be5  MemoryP_ctrlFree                                                     
00010bf0  ti_sysbios_utils_Load_taskDeleteHook__E                              
00010cad  rlDriverMsgWrite                                                     
00010d65  __kernel_cos                                                         
00010e1d  _mpuEnable_                                                          
00010e3b  _mpuDisable_                                                         
00010e59  _mpuEnableBackgroundRegion_                                          
00010e6f  _mpuDisableBackgroundRegion_                                         
00010e85  _mpuGetNumberOfRegions_                                              
00010e8f  _mpuAreRegionsSeparate_                                              
00010e97  _mpuSetRegion_                                                       
00010e9d  _mpuGetRegion_                                                       
00010ea3  _mpuSetRegionBaseAddress_                                            
00010ea9  _mpuGetRegionBaseAddress_                                            
00010eaf  _mpuSetRegionTypeAndPermission_                                      
00010eb9  _mpuGetRegionType_                                                   
00010ec3  _mpuGetRegionPermission_                                             
00010ecd  _mpuSetRegionSizeRegister_                                           
00010ed5  EDMA_startTransfer                                                   
00010f88  xdc_runtime_Memory_alloc__E                                          
0001103d  MMWave_addProfile                                                    
0001119d  rlSetProfileConfig                                                   
0001124d  __TI_wrt_ok                                                          
000112b1  __TI_rd_ok                                                           
000112fd  ESM_processInterrupt                                                 
00011455  CLI_MMWaveExtensionHelp                                              
000114fd  EDMA3Init                                                            
0001164d  MMWave_getBpmChirpHandle                                             
000116f5  Pinmux_Set_OverrideCtrl                                              
0001179d  rlSetAdvFrameConfig                                                  
00011844  xdc_runtime_System_formatNum__I                                      
000118ed  ESM_init                                                             
00011991  MMWave_addBpmChirp                                                   
00011a35  MMWave_start                                                         
00011ad9  MmwDemo_dataPathConfig                                               
00011b7d  __kernel_sin                                                         
00011c20  xdc_runtime_Error_print__E                                           
00011cc5  ADCBUF_MMWave_getChanBufAddr                                         
00011e05  SOC_registerSysIntListener                                           
00011ea5  rlDriverWaitForResponse                                              
00011f44  xdc_runtime_Text_putLab__E                                           
00012085  MMWave_configLink                                                    
00012121  MMWave_getProfileHandle                                              
000122f5  __aeabi_memcpy                                                       
000122f5  __aeabi_memcpy4                                                      
000122f5  __aeabi_memcpy8                                                      
000122f5  memcpy                                                               
00012390  ti_sysbios_knl_Clock_logTick__E                                      
0001242d  MMWave_getChirpCfg                                                   
000124c5  __TI_closefile                                                       
0001252b  fclose                                                               
0001255d  fputc                                                                
0001255d  putc                                                                 
000125e3  putchar                                                              
000125f4  ti_sysbios_family_xxx_Hwi_switchAndRunFunc                           
00012640  ti_sysbios_family_xxx_Hwi_switchAndRunDispatchC                      
0001268c  xdc_runtime_Core_deleteObject__I                                     
00012725  HWA_configRam                                                        
000127bd  rlDriverDeInit                                                       
00012851  rlDriverMsgReadCmdCtx                                                
000128e4  ti_sysbios_family_arm_v7r_vim_Hwi_dispatchIRQ__I                     
00012979  rlDriverGetHandle                                                    
00012980  ti_sysbios_utils_Load_updateCurrentThreadTime__E                     
00012a15  Mailbox_close                                                        
00012b35  MmwDemo_dataPathStart                                                
00012c55  SemaphoreP_post                                                      
00012c55  SemaphoreP_postFromClock                                             
00012c55  SemaphoreP_postFromISR                                               
00012c60  ti_sysbios_heaps_HeapMem_alloc__E                                    
00012d7d  GPIO_init                                                            
00012e95  MmwDemo_edmaOpen                                                     
00012f21  rlDriverMsgCmdReply                                                  
00012fac  xdc_runtime_Startup_exec__E                                          
00013039  Gesture_angleEst                                                     
000130c1  MMWave_getProfileCfg                                                 
00013149  SOC_translateAddress                                                 
000131d1  vsnprintf                                                            
00013258  ti_sysbios_family_arm_v7r_vim_Hwi_create                             
000132e1  MMWave_getNumBpmChirp                                                
000133e8  ti_sysbios_family_arm_TaskSupport_Module__startupDone__S             
000133e8  ti_sysbios_knl_Task_SupportProxy_Module__startupDone__S              
000133f0  ti_sysbios_heaps_HeapMem_getStats__E                                 
000135f9  rlDriverExecuteGetApi                                                
00013678  ti_sysbios_knl_Task_create                                           
000136f8  ti_sysbios_family_arm_a15_TimestampProvider_get32__E                 
000136f8  xdc_runtime_Timestamp_SupportProxy_get32__E                          
000136f8  xdc_runtime_Timestamp_get32__E                                       
00013700  ti_sysbios_utils_Load_taskSwitchHook__E                              
00013781  HwiP_create                                                          
000138f8  ti_sysbios_family_arm_TaskSupport_buildTaskStack                     
00013974  xdc_runtime_Assert_raise__I                                          
000139f1  __aeabi_memclr                                                       
000139f1  __aeabi_memclr4                                                      
000139f1  __aeabi_memclr8                                                      
000139f3  __aeabi_memset                                                       
000139f3  __aeabi_memset4                                                      
000139f3  __aeabi_memset8                                                      
000139f9  memset                                                               
00013ae5  MMWave_getNumChirps                                                  
00013b5d  MMWave_open                                                          
00013bd5  EDMA_configParamSet                                                  
00013c49  MMWave_config                                                        
00013cbd  SOC_init                                                             
00013d30  _c_int00                                                             
00013da5  rlDriverAsyncEventHandler                                            
00013e19  rlDriverProcRdMsg                                                    
00013e8d  finddevice                                                           
00013ebb  getdevice                                                            
00013f01  frexp                                                                
00013f01  frexpl                                                               
00013f75  MmwDemo_dataPathTrigger1D                                            
00014140  ti_sysbios_family_arm_v7r_vim_Hwi_getStackInfo__E                    
00014140  ti_sysbios_hal_Hwi_HwiProxy_getStackInfo__E                          
00014140  ti_sysbios_hal_Hwi_getStackInfo__E                                   
000141b0  ti_sysbios_family_arm_v7r_vim_Hwi_phantomIntHandler__I               
00014221  GPIO_enableInt                                                       
000142f9  MMWave_stopLink                                                      
00014365  MmwDemo_ADCBufOpen                                                   
000143d1  Pinmux_Set_FuncSel                                                   
0001443d  __TI_decompress_lzss                                                 
000144a9  __TI_writemsg                                                        
000144db  C$$IO$$                                                              
000144df  __TI_readmsg                                                         
00014515  UART_read                                                            
00014520  ti_sysbios_heaps_HeapMem_init__I                                     
0001458d  MMWave_listGetHead                                                   
00014590  ti_sysbios_knl_Task_allBlockedFunction__I                            
000146d1  rlDriverExecuteSetApi                                                
00014739  rlDriverHostIrqHandler                                               
000147a1  HOSTlseek                                                            
00014809  HOSTrename                                                           
00014870  xdc_runtime_Error_setX__E                                            
000148d9  MmwDemo_dataPathWait1D                                               
00014941  rlDevicePowerOff                                                     
00014a71  Mailbox_readFlush                                                    
00014ad5  SemaphoreP_create                                                    
00014b39  fseek                                                                
00014b9d  sprintf                                                              
00014c00  ti_sysbios_family_arm_exc_Exception_initCore0__I                     
00014c64  xdc_runtime_Core_assignParams__I                                     
00014cc9  CLI_MMWaveExtensionHandler                                           
00014d29  GPIO_setCallback                                                     
00014d89  MMWave_deviceCfgAsyncEvent                                           
00014f08  xdc_runtime_Text_xprintf__I                                          
00014f69  MmwDemo_dataPathWait2D                                               
00014fc9  MMWave_stop                                                          
00015025  MmwDemo_mmWaveCtrlTask                                               
00015081  HOSTopen                                                             
000150dd  HOSTread                                                             
00015138  ti_sysbios_family_arm_v7a_Pmu_getEnabled__E                          
00015140  ti_sysbios_family_arm_v7r_tms570_Core_Module_startup__E              
0001519c  xdc_runtime_Core_assignLabel__I                                      
00015253  rlDriverCalChkSum                                                    
000152ad  EDMA3EnableChInShadowReg                                             
00015305  ESM_highpriority_FIQ                                                 
0001535d  MMWave_execute                                                       
0001540d  MmwDemo_waitSensorStartComplete                                      
00015465  rlDriverMsgReadSpawnCtx                                              
000154bd  close                                                                
00015515  HOSTwrite                                                            
0001556d  MMWave_listGetNext                                                   
00015570  ti_sysbios_family_arm_TaskSupport_start__E                           
00015570  ti_sysbios_knl_Task_SupportProxy_start__E                            
000155c8  xdc_runtime_Error_getSite__E                                         
000155d0  ti_sysbios_hal_Hwi_checkStack                                        
00015628  malloc                                                               
000156d9  CRC_getTransactionId                                                 
0001572d  ltoa                                                                 
00015780  ti_sysbios_hal_Hwi_initStack                                         
000157d4  ti_sysbios_knl_Semaphore_create                                      
00015828  xdc_runtime_System_atexit__E                                         
0001587c  xdc_runtime_System_putchar__I                                        
000158d0  xdc_runtime_Text_printVisFxn__I                                      
00015925  HWA_getDMAconfig                                                     
00015979  CRC_getSignature                                                     
000159c9  EDMA3MapChToEvtQ                                                     
00015a19  MMWave_sync                                                          
00015a69  rlDeviceIdentifyCmdDir                                               
00015ab9  rlDriverVerifyCRC                                                    
00015b09  atoi                                                                 
00015b59  C$$EXIT                                                              
00015b5d  abort                                                                
00015b5d  xdc_runtime_System_abortStd__E                                       
00015b65  exit                                                                 
00015b65  xdc_runtime_System_exitStd__E                                        
00015ba8  __aeabi_uidiv                                                        
00015ba8  __aeabi_uidivmod                                                     
00015bf8  xdc_runtime_SysStd_ready__E                                          
00015bf8  xdc_runtime_System_SupportProxy_ready__E                             
00015c00  ti_sysbios_knl_Event_pendTimeout__I                                  
00015c50  ti_sysbios_knl_Semaphore_pendTimeout__I                              
00015ca1  MmwDemo_dataPathTrigger2D                                            
00015cf1  EDMA_disableChannel                                                  
00015d3d  EDMA_enableChannel                                                   
00015d89  MmwDemo_waitSensorStopComplete                                       
00015e21  copy_in                                                              
00015e6c  ti_sysbios_gates_GateHwi_Object__create__S                           
00015eb8  ti_sysbios_gates_GateMutex_Object__create__S                         
00015f04  ti_sysbios_heaps_HeapMem_Object__create__S                           
00015f50  ti_sysbios_knl_Event_create                                          
00015f9c  ti_sysbios_knl_Semaphore_construct                                   
00015fe9  MmwDemo_EDMA_transferCompletionCallbackFxn                           
00016035  CLI_write                                                            
000160c5  HWA_enableDoneInterrupt                                              
0001610d  rlDeviceGetVersion                                                   
00016155  rlDriverOsiInit                                                      
0001619c  ti_sysbios_knl_Clock_doTick__I                                       
000161e4  xdc_runtime_System_processAtExit__E                                  
000162b9  HOSTclose                                                            
000162fd  HOSTunlink                                                           
00016340  ti_sysbios_heaps_HeapMem_free__E                                     
00016384  ti_sysbios_knl_Queue_construct                                       
000163c8  xdc_runtime_System_Module_startup__E                                 
000163d0  ti_sysbios_timers_rti_Timer_periodicStub__E                          
00016414  xdc_runtime_Text_cordText__E                                         
00016459  HWA_reset                                                            
0001649b  MMWave_executeLink                                                   
000164dd  EDMA_linkParamSets                                                   
0001651d  MMWave_decodeError                                                   
0001655d  rlDriverValidateHdr                                                  
0001659d  strtok                                                               
000165dc  ti_sysbios_BIOS_atExitFunc__I                                        
0001661c  xdc_runtime_System_avprintf__E                                       
0001665d  MmwDemo_dataPathWaitAngleEstimation                                  
0001669d  MmwDemo_hwaOpen                                                      
000168cd  HWA_enable                                                           
00016985  Mailbox_writeReset                                                   
000169c1  SOC_unhaltBSS                                                        
000169fd  rlGetSubBlock                                                        
00016a38  ti_sysbios_family_arm_v7r_vim_Hwi_init__I                            
00016a74  xdc_runtime_System_vprintf__E                                        
00016ab1  HWA_setDMA2ACCManualTrig                                             
00016aed  HwiP_delete                                                          
00016b27  getmaxidx_inarray                                                    
00016b61  getminidx_inarray                                                    
00016b9d  ADCBUF_MMWave_close                                                  
00016bd5  EDMA3ClrMissEvt                                                      
00016c0d  UART_init                                                            
00016c44  ti_sysbios_BIOS_startFunc__I                                         
00016c80  ti_sysbios_knl_Task_restore__E                                       
00016cb9  MmwDemo_dataPathTriggerAngleEstimation                               
00016cf1  rlAppendSubBlock                                                     
00016d27  strncpy                                                              
00016d5d  ADCBuf_open                                                          
00016df9  SOC_enableHWA                                                        
00016e2d  UART_open                                                            
00016e60  ti_sysbios_BIOS_registerRTSLock__I                                   
00016e94  ti_sysbios_BIOS_removeRTSLock__I                                     
00016ec8  ti_sysbios_family_arm_v7r_vim_Hwi_Object__delete__S                  
00016efc  ti_sysbios_gates_GateMutex_Object__delete__S                         
00016f30  ti_sysbios_knl_Clock_Module_startup__E                               
00016f65  UART_write                                                           
00016f70  ti_sysbios_knl_Idle_run__E                                           
00016fa4  ti_sysbios_knl_Semaphore_Object__delete__S                           
00016fd8  xdc_runtime_Registry_findById__E                                     
0001700c  xdc_runtime_SysStd_abort__E                                          
0001700c  xdc_runtime_System_SupportProxy_abort__E                             
0001710d  ADCBuf_init                                                          
0001713d  MMWave_listRemoveNode                                                
0001716d  MmwDemo_EDMA_errorCallbackFxn                                        
0001719d  rlSensorStart                                                        
000171cc  ti_sysbios_BIOS_rtsLock__I                                           
00017200  ti_sysbios_family_arm_a15_TimestampProvider_autoRefreshFxn__I        
00017230  ti_sysbios_family_arm_v7r_vim_Hwi_disableInterrupt__E                
00017230  ti_sysbios_hal_Hwi_HwiProxy_disableInterrupt__E                      
00017230  ti_sysbios_hal_Hwi_disableInterrupt__E                               
00017260  ti_sysbios_family_arm_v7r_vim_Hwi_enableInterrupt__E                 
00017260  ti_sysbios_hal_Hwi_HwiProxy_enableInterrupt__E                       
00017260  ti_sysbios_hal_Hwi_enableInterrupt__E                                
00017290  ti_sysbios_gates_GateHwi_Object__delete__S                           
000172c0  ti_sysbios_gates_GateMutex_Instance_init__E                          
000172f0  ti_sysbios_heaps_HeapMem_Object__delete__S                           
00017320  ti_sysbios_knl_Task_restoreHwi__E                                    
00017350  xdc_runtime_Error_check__E                                           
00017380  xdc_runtime_Error_raiseX__E                                          
000173b0  xdc_runtime_Memory_valloc__E                                         
000173e1  MmwDemo_EDMA_transferControllerErrorCallbackFxn                      
00017411  MMWave_osalMutexCreate                                               
0001743f  MMWave_osalSemCreate                                                 
000174f1  SOC_waitBSSPowerUp                                                   
0001751d  rlDeviceGetMssVersion                                                
00017549  rlSensorStop                                                         
00017575  sqrt                                                                 
00017575  sqrtl                                                                
000175a1  remove                                                               
000175a1  unlink                                                               
000175cc  ti_sysbios_BIOS_errorRaiseHook__I                                    
000175f8  ti_sysbios_gates_GateHwi_Handle__label__S                            
000175f8  xdc_runtime_Main_Module_GateProxy_Handle__label__S                   
000175f8  xdc_runtime_System_Module_GateProxy_Handle__label__S                 
00017624  ti_sysbios_BIOS_RtsGateProxy_Handle__label__S                        
00017624  ti_sysbios_gates_GateMutex_Handle__label__S                          
00017624  ti_sysbios_heaps_HeapMem_Module_GateProxy_Handle__label__S           
00017650  ti_sysbios_heaps_HeapMem_Handle__label__S                            
00017650  xdc_runtime_Memory_HeapProxy_Handle__label__S                        
0001767c  ti_sysbios_knl_Semaphore_destruct                                    
000176a9  EDMA3ErrIntrHighStatusGet                                            
000176b0  ti_sysbios_knl_Task_enter__I                                         
000176dd  SOC_SystemISR                                                        
00017707  strspn                                                               
00017731  MmwDemo_dataPathInit                                                 
00017759  UartSci_noDMAInitiateRxDMA                                           
00017781  UartSci_noDMAInitiateTxDMA                                           
000177a8  free                                                                 
000177d1  log2Approx                                                           
000177f9  rlDriverConstructInMsg                                               
00017821  lseek                                                                
00017849  write                                                                
00017870  ti_sysbios_BIOS_rtsUnlock__I                                         
00017899  EDMA3GetCCErrStatus                                                  
000178a0  ti_sysbios_family_arm_v7a_Pmu_Module_startup__E                      
000178c8  ti_sysbios_family_arm_v7r_vim_Hwi_Module__startupDone__F             
000178c8  ti_sysbios_family_arm_v7r_vim_Hwi_Module__startupDone__S             
000178c8  ti_sysbios_hal_Hwi_HwiProxy_Module__startupDone__S                   
000178f0  ti_sysbios_gates_GateMutex_leave__E                                  
00017918  ti_sysbios_knl_Queue_destruct                                        
00017940  ti_sysbios_knl_Clock_TimerProxy_Module__startupDone__S               
00017940  ti_sysbios_timers_rti_Timer_Module__startupDone__F                   
00017940  ti_sysbios_timers_rti_Timer_Module__startupDone__S                   
00017968  xdc_runtime_Error_init__E                                            
00017990  xdc_runtime_System_abort__E                                          
000179b8  xdc_runtime_System_aprintf__E                                        
000179e0  xdc_runtime_System_printf__E                                         
00017a09  rlDeviceGetMmWaveLinkVersion                                         
00017a2f  rlRfInitCalibConfig                                                  
00017a55  rlRfRunTimeCalibConfig                                               
00017a7b  rlRfSetCalMonFreqLimitConfig                                         
00017aa1  rlRfSetDeviceCfg                                                     
00017ac7  rlSetAdcOutConfig                                                    
00017aed  rlSetBpmCommonConfig                                                 
00017b13  rlSetChannelConfig                                                   
00017b39  rlSetContModeConfig                                                  
00017b5f  memcmp                                                               
00017b85  _MmwDemo_debugAssert                                                 
00017bd1  EDMA3ClrEvt                                                          
00017bf5  EDMA3ClrIntr                                                         
00017c19  EDMA3DisableEvtIntr                                                  
00017c3d  EDMA3EnableDmaEvt                                                    
00017c61  EDMA3EnableEvtIntr                                                   
00017c85  EDMA3SetEvt                                                          
00017ccd  Mailbox_Config_init                                                  
00017cf1  rlEnableContMode                                                     
00017d15  rlRfSetCalMonTimeUnitConfig                                          
00017d39  rlSetLowPowerModeConfig                                              
00017d5c  xdc_runtime_System_exit__E                                           
00017da3  MmwDemo_memPoolAlloc                                                 
00017dc5  strcspn                                                              
00017de9  CLI_MMWaveExtensionInit                                              
00017e09  EDMA3DisableDmaEvt                                                   
00017e29  EDMA3QdmaClrMissEvt                                                  
00017e49  ESM_lowpriority_IRQ                                                  
00017e69  MMWave_listCat                                                       
00017e89  MmwDemo_dataPathObjInit                                              
00017ea9  MmwDemo_dataPathOpen                                                 
00017ee9  rlRfInit                                                             
00017f08  ti_sysbios_BIOS_exitFunc__I                                          
00017f29  EDMA3GetErrIntrStatus                                                
00017f30  ti_sysbios_family_arm_v7r_vim_Hwi_clearInterrupt__E                  
00017f30  ti_sysbios_hal_Hwi_HwiProxy_clearInterrupt__E                        
00017f30  ti_sysbios_hal_Hwi_clearInterrupt__E                                 
00018017  MMWave_listRemove                                                    
00018035  MmwDemo_notifySensorStart                                            
00018050  ti_sysbios_family_arm_TaskSupport_glue                               
0001806d  findmax                                                              
00018089  findmin                                                              
000180a5  memccpy                                                              
000180c0  ti_sysbios_family_arm_a15_TimestampProvider_initCCNT__I              
000180dc  ti_sysbios_heaps_HeapMem_Object__get__S                              
000180f9  EDMA3QdmaGetErrIntrStatus                                            
00018100  ti_sysbios_knl_Event_Instance_init__E                                
0001811c  xdc_runtime_Startup_exec__I                                          
00018138  xdc_runtime_System_vsnprintf__E                                      
00018154  xdc_runtime_Text_ropeText__E                                         
0001818b  EDMA3SetPaRAM                                                        
000181a5  MMWave_encodeError                                                   
000181bf  MMWave_listAdd                                                       
000181d9  copysign                                                             
000181d9  copysignl                                                            
000181f5  EDMA3DisableQdmaEvt                                                  
0001820d  EDMA3EnableQdmaEvt                                                   
00018225  MMWave_osalMutexLock                                                 
0001823d  MMWave_osalSemWait                                                   
0001826d  UART_Params_init                                                     
00018284  ti_sysbios_family_arm_TaskSupport_swap__E                            
00018284  ti_sysbios_knl_Task_SupportProxy_swap__E                             
0001829d  rlDeviceGetRfVersion                                                 
000182b5  rlDriverCalCRC                                                       
000182cd  rlDriverFillPayload                                                  
000182e5  rlDriverIsDeviceMapValid                                             
000182fd  _args_main                                                           
00018315  strcmp                                                               
00018330  ti_sysbios_BIOS_setThreadType__E                                     
00018349  HwiP_restore                                                         
00018350  ti_sysbios_BIOS_start__E                                             
00018368  ti_sysbios_family_arm_v7a_Pmu_initCounters__I                        
00018380  ti_sysbios_hal_Hwi_Module_startup__E                                 
00018398  ti_sysbios_heaps_HeapBuf_Object__get__S                              
000183b0  ti_sysbios_knl_Idle_loop__E                                          
000183c9  MmwDemo_memPoolReset                                                 
000183d0  ti_sysbios_knl_Queue_empty__E                                        
000183e8  ti_sysbios_knl_Task_Object__get__S                                   
00018400  ti_sysbios_knl_Task_disable__E                                       
00018419  MmwDemo_process2D                                                    
0001842f  strchr                                                               
00018445  strlen                                                               
0001845d  CLI_getMMWaveExtensionOpenConfig                                     
00018471  EDMA3GetIntrStatus                                                   
00018485  EDMA3IntrStatusHighGet                                               
00018499  EDMA3MapQdmaChToPaRAM                                                
000184ad  HwiP_Params_init                                                     
000184e9  MMWave_osalMutexDelete                                               
000184fd  MMWave_osalSemDelete                                                 
00018525  _DebugP_assert                                                       
00018539  rlAppendDummy                                                        
0001854d  _register_unlock                                                     
00018553  _register_lock                                                       
0001855b  _nop                                                                 
00018561  strcpy                                                               
00018575  UART_writePolling                                                    
00018580  ti_sysbios_family_arm_TaskSupport_checkStack__E                      
00018580  ti_sysbios_knl_Task_SupportProxy_checkStack__E                       
00018595  rlGetSubBlockId                                                      
0001859b  rlGetSubBlockLen                                                     
000185a0  ti_sysbios_family_arm_a15_TimestampProvider_Module_startup__E        
000185bd  MmwDemo_hwaInit                                                      
000185c0  ti_sysbios_family_arm_v7r_vim_Hwi_switchFromBootStack__E             
000185c0  ti_sysbios_hal_Hwi_HwiProxy_switchFromBootStack__E                   
000185c0  ti_sysbios_hal_Hwi_switchFromBootStack__E                            
000185d5  MmwDemo_sleep                                                        
000185d9  UartSci_noDMAClose                                                   
000185dd  UartSci_noDMAIsDMAEnabled                                            
000185e0  ti_sysbios_gates_GateMutex_Instance_finalize__E                      
000185f5  UartSci_noDMAOpen                                                    
000185f8  ti_sysbios_BIOS_RtsGateProxy_enter__E                                
000185fc  ti_sysbios_BIOS_RtsGateProxy_leave__E                                
00018600  ti_sysbios_knl_Semaphore_Instance_finalize__E                        
00018614  xdc_runtime_Gate_leaveSystem__E                                      
00018628  xdc_runtime_Memory_HeapProxy_alloc__E                                
0001863c  xdc_runtime_Memory_HeapProxy_free__E                                 
00018650  xdc_runtime_Memory_calloc__E                                         
00018664  xdc_runtime_Memory_free__E                                           
00018679  EDMA3SetQdmaTrigWord                                                 
0001868b  MemoryP_ctrlAlloc                                                    
0001869d  MmwDemo_pow2roundup                                                  
000186af  SemaphoreP_pend                                                      
000186c1  CLI_getMMWaveExtensionConfig                                         
000186e1  MmwDemo_notifySensorStop                                             
000186f1  SOC_getInAddr_LUTType                                                
00018701  SOC_getOutAddr_LUTType                                               
00018711  dbgDummyFunc                                                         
00018720  ti_sysbios_BIOS_getCpuFreq__E                                        
00018720  ti_sysbios_family_arm_a15_TimestampProvider_getFreq__E               
00018720  xdc_runtime_Timestamp_SupportProxy_getFreq__E                        
00018720  xdc_runtime_Timestamp_getFreq__E                                     
00018730  ti_sysbios_family_arm_TaskSupport_getStackAlignment__E               
00018730  ti_sysbios_knl_Task_SupportProxy_getStackAlignment__E                
00018740  ti_sysbios_family_arm_a15_TimestampProvider_getOverflowCCNT__I       
00018750  ti_sysbios_family_arm_exc_Exception_Module_startup__E                
00018760  ti_sysbios_family_arm_v7a_Pmu_disableInterruptI__E                   
00018770  ti_sysbios_family_arm_v7a_Pmu_enableInterruptI__E                    
00018780  ti_sysbios_family_arm_v7a_Pmu_getNumCounters__E                      
00018790  ti_sysbios_family_arm_v7a_Pmu_startCounterI__E                       
000187a0  ti_sysbios_family_arm_v7a_Pmu_stopCounterI__E                        
000187b0  ti_sysbios_family_arm_v7r_vim_Hwi_Params__init__S                    
000187b0  ti_sysbios_hal_Hwi_HwiProxy_Params__init__S                          
000187c0  ti_sysbios_knl_Queue_Object__get__S                                  
000187d0  ti_sysbios_knl_Semaphore_Params__init__S                             
000187e0  ti_sysbios_knl_Task_Params__init__S                                  
000187f0  ti_sysbios_utils_Load_getCPULoad__E                                  
00018800  ti_sysbios_utils_Load_taskRegHook__E                                 
00018810  xdc_runtime_Gate_enterSystem__E                                      
00018820  xdc_runtime_Memory_getMaxDefaultTypeAlign__E                         
00018830  xdc_runtime_Startup_rtsDone__E                                       
00018841  ADCBuf_Params_init                                                   
0001884f  MMWave_decodeErrorLevel                                              
0001886b  SemaphoreP_delete                                                    
00018879  __TI_decompress_none                                                 
00018888  ti_sysbios_BIOS_nullFunc__I                                          
0001888c  ti_sysbios_family_arm_v7r_vim_Hwi_delete                             
00018890  ti_sysbios_family_arm_v7r_vim_Hwi_startup__E                         
00018890  ti_sysbios_hal_Hwi_HwiProxy_startup__E                               
00018890  ti_sysbios_hal_Hwi_startup__E                                        
0001889c  ti_sysbios_heaps_HeapMem_Module_GateProxy_enter__E                   
000188a0  ti_sysbios_gates_GateHwi_enter__E                                    
000188ac  ti_sysbios_heaps_HeapMem_Module_GateProxy_leave__E                   
000188b0  ti_sysbios_knl_Queue_Instance_init__E                                
000188bc  ti_sysbios_knl_Clock_TimerProxy_getMaxTicks__E                       
000188c0  ti_sysbios_gates_GateHwi_leave__E                                    
000188c8  ti_sysbios_knl_Semaphore_delete                                      
000188cc  xdc_runtime_Startup_reset__I                                         
000188d0  ti_sysbios_gates_GateHwi_query__E                                    
000188d0  xdc_runtime_Main_Module_GateProxy_query__E                           
000188d0  xdc_runtime_System_Module_GateProxy_query__E                         
000188d8  xdc_runtime_SysStd_putch__E                                          
000188d8  xdc_runtime_System_SupportProxy_putch__E                             
000188dc  xdc_runtime_System_Module_GateProxy_enter__E                         
000188e0  ti_sysbios_BIOS_RtsGateProxy_query__E                                
000188e0  ti_sysbios_gates_GateMutex_query__E                                  
000188e0  ti_sysbios_heaps_HeapMem_Module_GateProxy_query__E                   
000188e8  xdc_runtime_System_Module_GateProxy_leave__E                         
000188ec  xdc_runtime_System_aprintf_va__F                                     
000188f0  ti_sysbios_heaps_HeapMem_isBlocking__E                               
000188f8  xdc_runtime_System_printf_va__F                                      
00018900  ti_sysbios_timers_rti_Timer_getMaxTicks__E                           
00018910  ti_sysbios_BIOS_linkedWithIncorrectBootLibrary__E                    
00018920  ti_sysbios_gates_GateHwi_Instance_init__E                            
00018930  ti_sysbios_knl_Task_startup__E                                       
00018d50  _ctypes_                                                             
00018e51  xdc_runtime_Error_policy__C                                          
00018e52  ti_sysbios_family_arm_exc_Exception_Module__id__C                    
00018ef4  ti_sysbios_family_arm_TaskSupport_stackAlignment__C                  
00018f90  ti_sysbios_family_arm_v7r_vim_Hwi_channelMap__A                      
000190d0  ti_sysbios_knl_Task_Object__PARAMS__C                                
0001910c  ti_sysbios_family_arm_v7r_vim_Hwi_Object__PARAMS__C                  
0001913c  xdc_runtime_Startup_sfxnTab__A                                       
00019168  UART_defaultParams                                                   
00019190  ti_sysbios_heaps_HeapMem_Module__FXNS__C                             
000191b8  ti_sysbios_gates_GateHwi_Module__FXNS__C                             
000191dc  ti_sysbios_gates_GateMutex_Module__FXNS__C                           
00019200  ti_sysbios_heaps_HeapMem_Object__PARAMS__C                           
00019224  ti_sysbios_knl_Semaphore_Object__PARAMS__C                           
00019248  ti_sysbios_family_arm_v7r_vim_Hwi_Object__DESC__C                    
00019268  ti_sysbios_gates_GateHwi_Object__DESC__C                             
00019288  ti_sysbios_gates_GateMutex_Object__DESC__C                           
000192a8  ti_sysbios_heaps_HeapMem_Object__DESC__C                             
000192c8  ti_sysbios_knl_Event_Object__DESC__C                                 
000192e8  ti_sysbios_knl_Queue_Object__DESC__C                                 
00019308  ti_sysbios_knl_Semaphore_Object__DESC__C                             
00019328  ti_sysbios_knl_Task_Object__DESC__C                                  
00019348  gEdmaHwAttrs                                                         
00019364  ti_sysbios_gates_GateHwi_Object__PARAMS__C                           
0001937c  ti_sysbios_gates_GateMutex_Object__PARAMS__C                         
00019394  ti_sysbios_knl_Event_Object__PARAMS__C                               
000193ac  ti_sysbios_knl_Queue_Object__PARAMS__C                               
000193c4  ti_sysbios_knl_Task_hooks__A                                         
000193dc  xdc_runtime_Startup_sfxnRts__A                                       
000193f2  ti_sysbios_family_arm_v7a_Pmu_Module__id__C                          
000193f4  Mailbox_defaultCfg                                                   
00019408  gADCBufFxnTable                                                      
0001941c  gADCBufHwCfg                                                         
0001942c  ti_sysbios_family_arm_v7r_vim_Hwi_intReqEnaSet__A                    
0001943c  ti_sysbios_family_arm_v7r_vim_Hwi_wakeEnaSet__A                      
00019458  ti_sysbios_knl_Idle_funcList__A                                      
00019464  ADCBuf_defaultParams                                                 
00019474  ti_sysbios_knl_Idle_funcList__C                                      
0001947c  ti_sysbios_knl_Task_hooks__C                                         
00019484  xdc_runtime_Startup_firstFxns__A                                     
0001948c  xdc_runtime_Startup_firstFxns__C                                     
00019494  xdc_runtime_Startup_lastFxns__C                                      
0001949c  ti_sysbios_family_arm_exc_Exception_E_dataAbort__C                   
000194a0  ti_sysbios_family_arm_exc_Exception_E_prefetchAbort__C               
000194a4  ti_sysbios_family_arm_exc_Exception_E_swi__C                         
000194a8  ti_sysbios_family_arm_exc_Exception_E_undefinedInstruction__C        
000194ac  ti_sysbios_family_arm_exc_Exception_excHookFuncs__A                  
000194b0  ti_sysbios_family_arm_exc_Exception_excHookFuncs__C                  
000194b4  ti_sysbios_family_arm_v7a_Pmu_A_invalidCounterId__C                  
000194b8  ti_sysbios_family_arm_v7a_Pmu_Module__diagsEnabled__C                
000194bc  ti_sysbios_family_arm_v7a_Pmu_Module__diagsIncluded__C               
000194c0  ti_sysbios_family_arm_v7a_Pmu_Module__diagsMask__C                   
000194c4  ti_sysbios_family_arm_v7r_tms570_Core_E_mismatchedIds__C             
000194c8  ti_sysbios_family_arm_v7r_tms570_Core_id__C                          
000194cc  ti_sysbios_family_arm_v7r_vim_Hwi_A_badChannelId__C                  
000194d0  ti_sysbios_family_arm_v7r_vim_Hwi_E_alreadyDefined__C                
000194d4  ti_sysbios_family_arm_v7r_vim_Hwi_E_badIntNum__C                     
000194d8  ti_sysbios_family_arm_v7r_vim_Hwi_E_phantomInterrupt__C              
000194dc  ti_sysbios_family_arm_v7r_vim_Hwi_E_undefined__C                     
000194e0  ti_sysbios_family_arm_v7r_vim_Hwi_E_unsupportedMaskingOption__C      
000194e4  ti_sysbios_family_arm_v7r_vim_Hwi_LD_end__C                          
000194e8  ti_sysbios_family_arm_v7r_vim_Hwi_LM_begin__C                        
000194ec  ti_sysbios_family_arm_v7r_vim_Hwi_Module__diagsEnabled__C            
000194f0  ti_sysbios_family_arm_v7r_vim_Hwi_Module__diagsIncluded__C           
000194f4  ti_sysbios_family_arm_v7r_vim_Hwi_Module__diagsMask__C               
000194f8  ti_sysbios_family_arm_v7r_vim_Hwi_Module__loggerFxn1__C              
000194fc  ti_sysbios_family_arm_v7r_vim_Hwi_Module__loggerFxn8__C              
00019500  ti_sysbios_family_arm_v7r_vim_Hwi_Module__loggerObj__C               
00019504  ti_sysbios_family_arm_v7r_vim_Hwi_NUM_INTERRUPTS__C                  
00019508  ti_sysbios_family_arm_v7r_vim_Hwi_channelMap__C                      
0001950c  ti_sysbios_family_arm_v7r_vim_Hwi_intReqEnaSet__C                    
00019510  ti_sysbios_family_arm_v7r_vim_Hwi_phantomFunc__C                     
00019514  ti_sysbios_family_arm_v7r_vim_Hwi_taskDisable__C                     
00019518  ti_sysbios_family_arm_v7r_vim_Hwi_taskRestoreHwi__C                  
0001951c  ti_sysbios_family_arm_v7r_vim_Hwi_wakeEnaSet__C                      
00019520  ti_sysbios_gates_GateMutex_A_badContext__C                           
00019524  ti_sysbios_gates_GateMutex_Instance_State_sem__O                     
00019528  ti_sysbios_gates_GateMutex_Module__diagsEnabled__C                   
0001952c  ti_sysbios_gates_GateMutex_Module__diagsIncluded__C                  
00019530  ti_sysbios_gates_GateMutex_Module__diagsMask__C                      
00019534  ti_sysbios_hal_Hwi_E_stackOverflow__C                                
00019538  ti_sysbios_heaps_HeapBuf_Instance_State_freeList__O                  
0001953c  ti_sysbios_heaps_HeapBuf_Object__count__C                            
00019540  ti_sysbios_heaps_HeapBuf_numConstructedHeaps__C                      
00019544  ti_sysbios_heaps_HeapMem_A_align__C                                  
00019548  ti_sysbios_heaps_HeapMem_A_heapSize__C                               
0001954c  ti_sysbios_heaps_HeapMem_A_invalidFree__C                            
00019550  ti_sysbios_heaps_HeapMem_A_zeroBlock__C                              
00019554  ti_sysbios_heaps_HeapMem_E_memory__C                                 
00019558  ti_sysbios_heaps_HeapMem_Module__diagsEnabled__C                     
0001955c  ti_sysbios_heaps_HeapMem_Module__diagsIncluded__C                    
00019560  ti_sysbios_heaps_HeapMem_Module__diagsMask__C                        
00019564  ti_sysbios_heaps_HeapMem_Module__gateObj__C                          
00019568  ti_sysbios_heaps_HeapMem_Object__count__C                            
0001956c  ti_sysbios_heaps_HeapMem_reqAlign__C                                 
00019570  ti_sysbios_knl_Clock_LM_begin__C                                     
00019574  ti_sysbios_knl_Clock_LM_tick__C                                      
00019578  ti_sysbios_knl_Clock_LW_delayed__C                                   
0001957c  ti_sysbios_knl_Clock_Module_State_clockQ__O                          
00019580  ti_sysbios_knl_Clock_Module__diagsEnabled__C                         
00019584  ti_sysbios_knl_Clock_Module__diagsIncluded__C                        
00019588  ti_sysbios_knl_Clock_Module__diagsMask__C                            
0001958c  ti_sysbios_knl_Clock_Module__loggerFxn1__C                           
00019590  ti_sysbios_knl_Clock_Module__loggerFxn2__C                           
00019594  ti_sysbios_knl_Clock_Module__loggerObj__C                            
00019598  ti_sysbios_knl_Event_A_badContext__C                                 
0001959c  ti_sysbios_knl_Event_A_eventInUse__C                                 
000195a0  ti_sysbios_knl_Event_A_nullEventId__C                                
000195a4  ti_sysbios_knl_Event_A_nullEventMasks__C                             
000195a8  ti_sysbios_knl_Event_A_pendTaskDisabled__C                           
000195ac  ti_sysbios_knl_Event_Instance_State_pendQ__O                         
000195b0  ti_sysbios_knl_Event_LM_pend__C                                      
000195b4  ti_sysbios_knl_Event_LM_post__C                                      
000195b8  ti_sysbios_knl_Event_Module__diagsEnabled__C                         
000195bc  ti_sysbios_knl_Event_Module__diagsIncluded__C                        
000195c0  ti_sysbios_knl_Event_Module__diagsMask__C                            
000195c4  ti_sysbios_knl_Event_Module__loggerFxn4__C                           
000195c8  ti_sysbios_knl_Event_Module__loggerFxn8__C                           
000195cc  ti_sysbios_knl_Event_Module__loggerObj__C                            
000195d0  ti_sysbios_knl_Semaphore_A_badContext__C                             
000195d4  ti_sysbios_knl_Semaphore_A_noEvents__C                               
000195d8  ti_sysbios_knl_Semaphore_A_overflow__C                               
000195dc  ti_sysbios_knl_Semaphore_A_pendTaskDisabled__C                       
000195e0  ti_sysbios_knl_Semaphore_Instance_State_pendQ__O                     
000195e4  ti_sysbios_knl_Semaphore_LM_pend__C                                  
000195e8  ti_sysbios_knl_Semaphore_LM_post__C                                  
000195ec  ti_sysbios_knl_Semaphore_Module__diagsEnabled__C                     
000195f0  ti_sysbios_knl_Semaphore_Module__diagsIncluded__C                    
000195f4  ti_sysbios_knl_Semaphore_Module__diagsMask__C                        
000195f8  ti_sysbios_knl_Semaphore_Module__loggerFxn2__C                       
000195fc  ti_sysbios_knl_Semaphore_Module__loggerFxn4__C                       
00019600  ti_sysbios_knl_Semaphore_Module__loggerObj__C                        
00019604  ti_sysbios_knl_Task_A_badPriority__C                                 
00019608  ti_sysbios_knl_Task_A_badTaskState__C                                
0001960c  ti_sysbios_knl_Task_A_badThreadType__C                               
00019610  ti_sysbios_knl_Task_A_noPendElem__C                                  
00019614  ti_sysbios_knl_Task_E_spOutOfBounds__C                               
00019618  ti_sysbios_knl_Task_E_stackOverflow__C                               
0001961c  ti_sysbios_knl_Task_LD_block__C                                      
00019620  ti_sysbios_knl_Task_LD_exit__C                                       
00019624  ti_sysbios_knl_Task_LD_ready__C                                      
00019628  ti_sysbios_knl_Task_LM_switch__C                                     
0001962c  ti_sysbios_knl_Task_Module_State_inactiveQ__O                        
00019630  ti_sysbios_knl_Task_Module__diagsEnabled__C                          
00019634  ti_sysbios_knl_Task_Module__diagsIncluded__C                         
00019638  ti_sysbios_knl_Task_Module__diagsMask__C                             
0001963c  ti_sysbios_knl_Task_Module__loggerFxn2__C                            
00019640  ti_sysbios_knl_Task_Module__loggerFxn4__C                            
00019644  ti_sysbios_knl_Task_Module__loggerObj__C                             
00019648  ti_sysbios_knl_Task_Object__count__C                                 
0001964c  ti_sysbios_knl_Task_Object__heap__C                                  
00019650  ti_sysbios_knl_Task_allBlockedFunc__C                                
00019654  ti_sysbios_knl_Task_defaultStackHeap__C                              
00019658  ti_sysbios_knl_Task_defaultStackSize__C                              
0001965c  ti_sysbios_knl_Task_numConstructedTasks__C                           
00019660  ti_sysbios_timers_rti_Timer_E_cannotSupport__C                       
00019664  ti_sysbios_timers_rti_Timer_Module__diagsEnabled__C                  
00019668  ti_sysbios_timers_rti_Timer_Module__diagsIncluded__C                 
0001966c  ti_sysbios_timers_rti_Timer_Module__diagsMask__C                     
00019670  ti_sysbios_timers_rti_Timer_numTimerDevices__C                       
00019674  ti_sysbios_timers_rti_Timer_startupNeeded__C                         
00019678  ti_sysbios_utils_Load_LS_cpuLoad__C                                  
0001967c  ti_sysbios_utils_Load_LS_taskLoad__C                                 
00019680  ti_sysbios_utils_Load_Module_State_taskList__O                       
00019684  ti_sysbios_utils_Load_Module__diagsEnabled__C                        
00019688  ti_sysbios_utils_Load_Module__diagsIncluded__C                       
0001968c  ti_sysbios_utils_Load_Module__diagsMask__C                           
00019690  ti_sysbios_utils_Load_Module__loggerFxn1__C                          
00019694  ti_sysbios_utils_Load_Module__loggerFxn4__C                          
00019698  ti_sysbios_utils_Load_Module__loggerObj__C                           
0001969c  ti_sysbios_utils_Load_postUpdate__C                                  
000196a0  ti_sysbios_utils_Load_windowInMs__C                                  
000196a4  xdc_runtime_Assert_E_assertFailed__C                                 
000196a8  xdc_runtime_Core_A_initializedParams__C                              
000196ac  xdc_runtime_Core_Module__diagsEnabled__C                             
000196b0  xdc_runtime_Core_Module__diagsIncluded__C                            
000196b4  xdc_runtime_Core_Module__diagsMask__C                                
000196b8  xdc_runtime_Error_E_memory__C                                        
000196bc  xdc_runtime_Error_Module__diagsEnabled__C                            
000196c0  xdc_runtime_Error_Module__diagsIncluded__C                           
000196c4  xdc_runtime_Error_Module__diagsMask__C                               
000196c8  xdc_runtime_Error_Module__loggerFxn8__C                              
000196cc  xdc_runtime_Error_Module__loggerObj__C                               
000196d0  xdc_runtime_Error_policyFxn__C                                       
000196d4  xdc_runtime_Error_raiseHook__C                                       
000196d8  xdc_runtime_IGateProvider_Interface__BASE__C                         
000196dc  xdc_runtime_IHeap_Interface__BASE__C                                 
000196e0  xdc_runtime_IModule_Interface__BASE__C                               
000196e4  xdc_runtime_Log_L_error__C                                           
000196e8  xdc_runtime_Memory_defaultHeapInstance__C                            
000196ec  xdc_runtime_Startup_execImpl__C                                      
000196f0  xdc_runtime_Startup_maxPasses__C                                     
000196f4  xdc_runtime_Startup_sfxnRts__C                                       
000196f8  xdc_runtime_Startup_sfxnTab__C                                       
000196fc  xdc_runtime_System_Module__gateObj__C                                
00019700  xdc_runtime_System_abortFxn__C                                       
00019704  xdc_runtime_System_exitFxn__C                                        
00019708  xdc_runtime_System_extendFxn__C                                      
0001970c  xdc_runtime_System_maxAtexitHandlers__C                              
00019710  xdc_runtime_Text_charTab__C                                          
00019714  xdc_runtime_Text_nameEmpty__C                                        
00019718  xdc_runtime_Text_nameStatic__C                                       
0001971c  xdc_runtime_Text_nameUnknown__C                                      
00019720  xdc_runtime_Text_visitRopeFxn__C                                     
00019724  ti_sysbios_family_arm_v7r_tms570_Core_Module__id__C                  
00019726  ti_sysbios_family_arm_v7r_vim_Hwi_Module__id__C                      
00019728  ti_sysbios_family_arm_v7r_vim_Hwi_Module__loggerDefined__C           
0001972a  ti_sysbios_gates_GateMutex_Module__id__C                             
0001972c  ti_sysbios_hal_Hwi_Module__id__C                                     
0001972e  ti_sysbios_heaps_HeapMem_Module__id__C                               
00019730  ti_sysbios_knl_Clock_Module__id__C                                   
00019732  ti_sysbios_knl_Clock_Module__loggerDefined__C                        
00019734  ti_sysbios_knl_Event_Module__id__C                                   
00019736  ti_sysbios_knl_Event_Module__loggerDefined__C                        
00019738  ti_sysbios_knl_Semaphore_Module__id__C                               
0001973a  ti_sysbios_knl_Semaphore_Module__loggerDefined__C                    
0001973c  ti_sysbios_knl_Task_Module__id__C                                    
0001973e  ti_sysbios_knl_Task_Module__loggerDefined__C                         
00019740  ti_sysbios_timers_rti_Timer_Module__id__C                            
00019742  ti_sysbios_timers_rti_Timer_continueOnSuspend__C                     
00019744  ti_sysbios_utils_Load_Module__id__C                                  
00019746  ti_sysbios_utils_Load_Module__loggerDefined__C                       
00019748  ti_sysbios_utils_Load_autoAddTasks__C                                
0001974a  ti_sysbios_utils_Load_updateInIdle__C                                
0001974c  xdc_runtime_Core_Module__id__C                                       
0001974e  xdc_runtime_Error_Module__loggerDefined__C                           
00019750  xdc_runtime_Error_maxDepth__C                                        
00019752  xdc_runtime_Main_Module__id__C                                       
00019754  xdc_runtime_Memory_Module__id__C                                     
00019756  xdc_runtime_Text_charCnt__C                                          
00019758  xdc_runtime_Text_isLoaded__C                                         
0001975a  xdc_runtime_Text_registryModsLastId__C                               
0001975c  xdc_runtime_Text_unnamedModsLastId__C                                
0001975e  xdc_runtime_Text_charTab__A                                          
00019760  __TI_static_base__                                                   
00019acc  __TI_Handler_Table_Base                                              
00019ad8  __TI_Handler_Table_Limit                                             
00019af0  __TI_CINIT_Base                                                      
00019b10  __TI_CINIT_Limit                                                     
00040000  _L3ram_size                                                          
08000000  ti_sysbios_heaps_HeapMem_Instance_State_0_buf__A                     
08008000  ti_sysbios_family_arm_exc_Exception_Module_State_0_excStack_0__A     
08009000  ti_sysbios_knl_Task_Instance_State_0_stack__A                        
08009320  edmaDbg                                                              
0800959c  gCLI                                                                 
0800973c  usefulframes_forgesture                                              
0800978c  steepfallidxs                                                        
080097dc  steepriseidxs                                                        
0800982c  numdetectptspeak_idx                                                 
0800987c  __CIOBUF_                                                            
0800999c  gGPIOMCB                                                             
08009ab0  gMMWave_MCB                                                          
08009b84  __TI_tmpnams                                                         
08009c24  gEsmMCB                                                              
08009c94  gMmwSessionMgmtMCB                                                   
08009cac  parmbuf                                                              
08009cb4  gHWADriverPtr                                                        
08009cb8  ti_sysbios_knl_Task_Instance_State_0_hookEnv__A                      
08009cc0  pktCounter                                                           
08009cc4  numRangeBinsXferred                                                  
08009cc8  range_res                                                            
08009ccc  vel_res                                                              
08009cd0  maxIndices                                                           
08009cd4  counterstart                                                         
08009cd8  counterend                                                           
08009cdc  counter_delta                                                        
08009ce0  prediction_result                                                    
08009ce4  counter_forprediction                                                
08009ce8  gMmwL3heap                                                           
08009cf4  gestureMetrics                                                       
08009d44  wt_rangearr                                                          
08009d94  wt_dopplerarr                                                        
08009de4  range_disparr                                                        
08009e34  vel_disparr                                                          
08009e84  anglearr                                                             
08009ed4  instenergyarr                                                        
08009f24  numdetectptsarr                                                      
08009f78  gMmwMCB                                                              
0800a808  D2H_SYNC_PATTERN                                                     
0800a80c  H2D_SYNC_PATTERN                                                     
0800a810  H2D_CNYS_PATTERN                                                     
0800a814  rl_txMsg                                                             
0800a914  rl_rxMsg                                                             
0800abf8  ti_sysbios_family_arm_v7r_vim_Hwi_Module_State_0_dispatchTable__A    
0800adf8  gCLIMMWaveOpenCfg                                                    
0800ae14  gCLIMMWaveExtensionTable                                             
0800aebc  gCLIMMWaveControlCfg                                                 
0800af88  _ftable                                                              
0800b078  ti_sysbios_utils_Load_Module__state__V                               
0800b110  ti_sysbios_knl_Task_Module_State_0_readyQ__A                         
0800b190  _device                                                              
0800b208  _stream                                                              
0800b258  gUartSciHwCfg                                                        
0800b2a8  ti_sysbios_knl_Task_Object__table__V                                 
0800b2f4  gMailboxMCB                                                          
0800b33c  ti_sysbios_knl_Task_Module__state__V                                 
0800b380  ti_sysbios_gates_GateMutex_Object__table__V                          
0800b3b8  ti_sysbios_timers_rti_Timer_Object__table__V                         
0800b3f0  ti_sysbios_family_arm_v7r_vim_Hwi_Module__state__V                   
0800b424  ti_sysbios_family_arm_v7r_vim_Hwi_Object__table__V                   
0800b450  ti_sysbios_knl_Clock_Module__state__V                                
0800b47c  gUartSciFxnTable                                                     
0800b4a4  SOC_TranslateAddr_LUT                                                
0800b4c8  UART_config                                                          
0800b4ec  gHWAHwCfg                                                            
0800b510  ti_sysbios_BIOS_Module__state__V                                     
0800b534  ti_sysbios_knl_Clock_Object__table__V                                
0800b554  xdc_runtime_Error_IgnoreBlock                                        
0800b574  xdc_runtime_System_Module_State_0_atexitHandlers__A                  
0800b594  ti_sysbios_utils_Load_Module_State_0_taskEnv__A                      
0800b5b0  ADCBuf_config                                                        
0800b5c8  gMailboxMssBssHwCfg                                                  
0800b5e0  ti_sysbios_heaps_HeapMem_Object__table__V                            
0800b5f8  ti_sysbios_timers_rti_Timer_Module_State_0_device__A                 
0800b610  ti_sysbios_family_arm_exc_Exception_Module__state__V                 
0800b624  gSOCHwAttrib                                                         
0800b634  __TI_ft_end                                                          
0800b638  __aeabi_stdin                                                        
0800b63c  __aeabi_stdout                                                       
0800b640  __aeabi_stderr                                                       
0800b644  ti_sysbios_timers_rti_Timer_Module_State_0_intFreqs__A               
0800b654  ti_sysbios_timers_rti_Timer_Module__state__V                         
0800b664  __TI_cleanup_ptr                                                     
0800b668  __TI_dtors_ptr                                                       
0800b66c  __TI_enable_exit_profile_output                                      
0800b670  gESMHwCfgAttrs                                                       
0800b67c  ti_sysbios_family_arm_v7a_Pmu_Module__state__V                       
0800b688  _lock                                                                
0800b68c  _unlock                                                              
0800b690  gGPIOHwAtrrib                                                        
0800b698  ti_sysbios_family_arm_v7r_vim_Hwi_Module__root__V                    
0800b6a0  ti_sysbios_gates_GateHwi_Module__root__V                             
0800b6a8  ti_sysbios_gates_GateMutex_Module__root__V                           
0800b6b0  ti_sysbios_hal_Hwi_Object__table__V                                  
0800b6b8  ti_sysbios_heaps_HeapMem_Module__root__V                             
0800b6c0  ti_sysbios_knl_Event_Module__root__V                                 
0800b6c8  ti_sysbios_knl_Queue_Module__root__V                                 
0800b6d0  ti_sysbios_knl_Semaphore_Module__root__V                             
0800b6d8  ti_sysbios_knl_Task_Module__root__V                                  
0800b6e0  ti_sysbios_timers_rti_Timer_Module_State_0_handles__A                
0800b6e8  xdc_runtime_Registry_Module__state__V                                
0800b6f0  xdc_runtime_Startup_Module__state__V                                 
0800b6f8  xdc_runtime_System_Module__state__V                                  
0800b704  gCRCRegister                                                         
0800b708  regionId                                                             
0800b70c  gPinmuxRegs                                                          
0800b714  errno                                                                
0800b720  main_func_sp                                                         
0800b728  ti_sysbios_family_arm_a15_TimestampProvider_Module__state__V         
0800b72c  ti_sysbios_family_arm_exc_Exception_Module_State_0_excContext__A     
0800b730  ti_sysbios_family_arm_exc_Exception_Module_State_0_excStackBuffers__A
0800b734  ti_sysbios_family_arm_exc_Exception_Module_State_0_excStack__A       
0800b738  ti_sysbios_gates_GateHwi_Object__table__V                            
0800b73c  ti_sysbios_heaps_HeapBuf_Module__state__V                            
0800b740  ti_sysbios_knl_Task_Module_State_0_idleTask__A                       
0800b744  ti_sysbios_utils_Load_Module_State_0_runningTask__A                  
0800b748  ti_sysbios_utils_Load_Module_State_0_taskStartTime__A                
0800b74c  xdc_runtime_Memory_Module__state__V                                  
0800b750  dbgVolatile                                                          
0800b752  ti_sysbios_family_arm_exc_Exception_Module_State_0_excActive__A      
0800b754  xdc_runtime_Error_Module__state__V                                   
0800b758  ti_sysbios_family_arm_v7r_vim_Hwi_Module_State_0_fiqStack__A         
0800bf58  __stack                                                              
0800c408  __STACK_END                                                          
51020000  _L3ram_start                                                         
51020000  gMmwL3                                                               
51020001  MmwDemo_initTask                                                     
51020271  Mailbox_init                                                         
510202e1  MmwDemo_edmaInit                                                     
510205e5  MMWave_init                                                          
510206c1  MMWave_initLink                                                      
51020759  CRC_initConfigParams                                                 
5102076d  CRC_open                                                             
51020965  rlDevicePowerOn                                                      
52030000  gMmwHwaMemBuf                                                        
fffffdec  ti_sysbios_family_arm_v7r_vim_Hwi_vim                                
ffffffff  __TI_pprof_out_hndl                                                  
ffffffff  __TI_prof_data_size                                                  
ffffffff  __TI_prof_data_start                                                 
ffffffff  __binit__                                                            
ffffffff  __c_args__                                                           
ffffffff  binit                                                                
UNDEFED   SHT$$INIT_ARRAY$$Base                                                
UNDEFED   SHT$$INIT_ARRAY$$Limit                                               

[1074 symbols]
